
Byggern.elf:     file format elf32-avr

Sections:
Idx Name          Size      VMA       LMA       File off  Algn
  0 .data         000001a4  00800100  000014d8  0000156c  2**0
                  CONTENTS, ALLOC, LOAD, DATA
  1 .text         000014d8  00000000  00000000  00000094  2**1
                  CONTENTS, ALLOC, LOAD, READONLY, CODE
  2 .bss          00000119  008002a4  008002a4  00001710  2**0
                  ALLOC
  3 .comment      0000005c  00000000  00000000  00001710  2**0
                  CONTENTS, READONLY
  4 .debug_aranges 00000190  00000000  00000000  0000176c  2**0
                  CONTENTS, READONLY, DEBUGGING
  5 .debug_info   000022a6  00000000  00000000  000018fc  2**0
                  CONTENTS, READONLY, DEBUGGING
  6 .debug_abbrev 00000a22  00000000  00000000  00003ba2  2**0
                  CONTENTS, READONLY, DEBUGGING
  7 .debug_line   00000aa8  00000000  00000000  000045c4  2**0
                  CONTENTS, READONLY, DEBUGGING
  8 .debug_frame  00000480  00000000  00000000  0000506c  2**2
                  CONTENTS, READONLY, DEBUGGING
  9 .debug_str    000005be  00000000  00000000  000054ec  2**0
                  CONTENTS, READONLY, DEBUGGING
 10 .debug_loc    00000c3f  00000000  00000000  00005aaa  2**0
                  CONTENTS, READONLY, DEBUGGING
 11 .debug_ranges 000001b8  00000000  00000000  000066e9  2**0
                  CONTENTS, READONLY, DEBUGGING

Disassembly of section .text:

00000000 <__vectors>:
       0:	0c 94 f6 00 	jmp	0x1ec	; 0x1ec <__ctors_end>
       4:	0c 94 15 01 	jmp	0x22a	; 0x22a <__vector_1>
       8:	0c 94 13 01 	jmp	0x226	; 0x226 <__bad_interrupt>
       c:	0c 94 13 01 	jmp	0x226	; 0x226 <__bad_interrupt>
      10:	0c 94 13 01 	jmp	0x226	; 0x226 <__bad_interrupt>
      14:	0c 94 13 01 	jmp	0x226	; 0x226 <__bad_interrupt>
      18:	0c 94 13 01 	jmp	0x226	; 0x226 <__bad_interrupt>
      1c:	0c 94 13 01 	jmp	0x226	; 0x226 <__bad_interrupt>
      20:	0c 94 13 01 	jmp	0x226	; 0x226 <__bad_interrupt>
      24:	0c 94 13 01 	jmp	0x226	; 0x226 <__bad_interrupt>
      28:	0c 94 13 01 	jmp	0x226	; 0x226 <__bad_interrupt>
      2c:	0c 94 13 01 	jmp	0x226	; 0x226 <__bad_interrupt>
      30:	0c 94 13 01 	jmp	0x226	; 0x226 <__bad_interrupt>
      34:	0c 94 13 01 	jmp	0x226	; 0x226 <__bad_interrupt>
      38:	0c 94 13 01 	jmp	0x226	; 0x226 <__bad_interrupt>
      3c:	0c 94 13 01 	jmp	0x226	; 0x226 <__bad_interrupt>
      40:	0c 94 13 01 	jmp	0x226	; 0x226 <__bad_interrupt>
      44:	0c 94 40 05 	jmp	0xa80	; 0xa80 <__vector_17>
      48:	0c 94 13 01 	jmp	0x226	; 0x226 <__bad_interrupt>
      4c:	0c 94 aa 05 	jmp	0xb54	; 0xb54 <__vector_19>
      50:	0c 94 13 01 	jmp	0x226	; 0x226 <__bad_interrupt>
      54:	0c 94 13 01 	jmp	0x226	; 0x226 <__bad_interrupt>
      58:	0c 94 13 01 	jmp	0x226	; 0x226 <__bad_interrupt>
      5c:	0c 94 f8 05 	jmp	0xbf0	; 0xbf0 <__vector_23>
      60:	0c 94 13 01 	jmp	0x226	; 0x226 <__bad_interrupt>
      64:	0c 94 13 01 	jmp	0x226	; 0x226 <__bad_interrupt>
      68:	0c 94 13 01 	jmp	0x226	; 0x226 <__bad_interrupt>
      6c:	0c 94 13 01 	jmp	0x226	; 0x226 <__bad_interrupt>

00000070 <__trampolines_end>:
      70:	00 00       	nop
      72:	00 00       	nop
      74:	00 5c       	subi	r16, 0xC0	; 192
      76:	00 00       	nop
      78:	0c 00       	.word	0x000c	; ????
      7a:	0c 00       	.word	0x000c	; ????
      7c:	7c 28       	or	r7, r12
      7e:	7c 28       	or	r7, r12
      80:	58 dc       	rcall	.-1872   	; 0xfffff932 <__eeprom_end+0xff7ef932>
      82:	68 00       	.word	0x0068	; ????
      84:	24 10       	cpse	r2, r4
      86:	48 00       	.word	0x0048	; ????
      88:	28 54       	subi	r18, 0x48	; 72
      8a:	28 40       	sbci	r18, 0x08	; 8
      8c:	00 0c       	add	r0, r0
      8e:	00 00       	nop
      90:	00 78       	andi	r16, 0x80	; 128
      92:	84 00       	.word	0x0084	; ????
      94:	84 78       	andi	r24, 0x84	; 132
      96:	00 00       	nop
      98:	54 38       	cpi	r21, 0x84	; 132
      9a:	54 00       	.word	0x0054	; ????
      9c:	10 7c       	andi	r17, 0xC0	; 192
      9e:	10 00       	.word	0x0010	; ????
      a0:	80 40       	sbci	r24, 0x00	; 0
      a2:	00 00       	nop
      a4:	10 10       	cpse	r1, r0
      a6:	10 00       	.word	0x0010	; ????
      a8:	00 40       	sbci	r16, 0x00	; 0
      aa:	00 00       	nop
      ac:	60 10       	cpse	r6, r0
      ae:	0c 00       	.word	0x000c	; ????
      b0:	38 54       	subi	r19, 0x48	; 72
      b2:	38 00       	.word	0x0038	; ????
      b4:	48 7c       	andi	r20, 0xC8	; 200
      b6:	40 00       	.word	0x0040	; ????
      b8:	48 64       	ori	r20, 0x48	; 72
      ba:	58 00       	.word	0x0058	; ????
      bc:	44 54       	subi	r20, 0x44	; 68
      be:	2c 00       	.word	0x002c	; ????
      c0:	1c 10       	cpse	r1, r12
      c2:	7c 00       	.word	0x007c	; ????
      c4:	5c 54       	subi	r21, 0x4C	; 76
      c6:	24 00       	.word	0x0024	; ????
      c8:	38 54       	subi	r19, 0x48	; 72
      ca:	24 00       	.word	0x0024	; ????
      cc:	64 14       	cp	r6, r4
      ce:	0c 00       	.word	0x000c	; ????
      d0:	68 54       	subi	r22, 0x48	; 72
      d2:	2c 00       	.word	0x002c	; ????
      d4:	48 54       	subi	r20, 0x48	; 72
      d6:	38 00       	.word	0x0038	; ????
      d8:	00 48       	sbci	r16, 0x80	; 128
      da:	00 00       	nop
      dc:	80 48       	sbci	r24, 0x80	; 128
      de:	00 00       	nop
      e0:	10 28       	or	r1, r0
      e2:	44 00       	.word	0x0044	; ????
      e4:	28 28       	or	r2, r8
      e6:	28 00       	.word	0x0028	; ????
      e8:	44 28       	or	r4, r4
      ea:	10 00       	.word	0x0010	; ????
      ec:	04 54       	subi	r16, 0x44	; 68
      ee:	08 00       	.word	0x0008	; ????
      f0:	38 44       	sbci	r19, 0x48	; 72
      f2:	5c 00       	.word	0x005c	; ????
      f4:	78 14       	cp	r7, r8
      f6:	78 00       	.word	0x0078	; ????
      f8:	7c 54       	subi	r23, 0x4C	; 76
      fa:	28 00       	.word	0x0028	; ????
      fc:	38 44       	sbci	r19, 0x48	; 72
      fe:	28 00       	.word	0x0028	; ????
     100:	7c 44       	sbci	r23, 0x4C	; 76
     102:	38 00       	.word	0x0038	; ????
     104:	7c 54       	subi	r23, 0x4C	; 76
     106:	44 00       	.word	0x0044	; ????
     108:	7c 14       	cp	r7, r12
     10a:	04 00       	.word	0x0004	; ????
     10c:	38 44       	sbci	r19, 0x48	; 72
     10e:	74 00       	.word	0x0074	; ????
     110:	7c 10       	cpse	r7, r12
     112:	7c 00       	.word	0x007c	; ????
     114:	44 7c       	andi	r20, 0xC4	; 196
     116:	44 00       	.word	0x0044	; ????
     118:	20 40       	sbci	r18, 0x00	; 0
     11a:	3c 00       	.word	0x003c	; ????
     11c:	7c 10       	cpse	r7, r12
     11e:	6c 00       	.word	0x006c	; ????
     120:	7c 40       	sbci	r23, 0x0C	; 12
     122:	40 00       	.word	0x0040	; ????
     124:	7c 18       	sub	r7, r12
     126:	7c 00       	.word	0x007c	; ????
     128:	78 10       	cpse	r7, r8
     12a:	3c 00       	.word	0x003c	; ????
     12c:	38 44       	sbci	r19, 0x48	; 72
     12e:	38 00       	.word	0x0038	; ????
     130:	7c 14       	cp	r7, r12
     132:	08 00       	.word	0x0008	; ????
     134:	38 44       	sbci	r19, 0x48	; 72
     136:	b8 00       	.word	0x00b8	; ????
     138:	7c 14       	cp	r7, r12
     13a:	68 00       	.word	0x0068	; ????
     13c:	48 54       	subi	r20, 0x48	; 72
     13e:	24 00       	.word	0x0024	; ????
     140:	04 7c       	andi	r16, 0xC4	; 196
     142:	04 00       	.word	0x0004	; ????
     144:	7c 40       	sbci	r23, 0x0C	; 12
     146:	7c 00       	.word	0x007c	; ????
     148:	3c 60       	ori	r19, 0x0C	; 12
     14a:	3c 00       	.word	0x003c	; ????
     14c:	7c 30       	cpi	r23, 0x0C	; 12
     14e:	7c 00       	.word	0x007c	; ????
     150:	6c 10       	cpse	r6, r12
     152:	6c 00       	.word	0x006c	; ????
     154:	0c 70       	andi	r16, 0x0C	; 12
     156:	0c 00       	.word	0x000c	; ????
     158:	64 54       	subi	r22, 0x44	; 68
     15a:	4c 00       	.word	0x004c	; ????
     15c:	00 7c       	andi	r16, 0xC0	; 192
     15e:	44 00       	.word	0x0044	; ????
     160:	0c 10       	cpse	r0, r12
     162:	60 00       	.word	0x0060	; ????
     164:	44 7c       	andi	r20, 0xC4	; 196
     166:	00 00       	nop
     168:	08 04       	cpc	r0, r8
     16a:	08 00       	.word	0x0008	; ????
     16c:	80 80       	ld	r8, Z
     16e:	80 00       	.word	0x0080	; ????
     170:	00 04       	cpc	r0, r0
     172:	08 00       	.word	0x0008	; ????
     174:	30 48       	sbci	r19, 0x80	; 128
     176:	78 00       	.word	0x0078	; ????
     178:	7c 48       	sbci	r23, 0x8C	; 140
     17a:	30 00       	.word	0x0030	; ????
     17c:	30 48       	sbci	r19, 0x80	; 128
     17e:	48 00       	.word	0x0048	; ????
     180:	30 48       	sbci	r19, 0x80	; 128
     182:	7c 00       	.word	0x007c	; ????
     184:	30 68       	ori	r19, 0x80	; 128
     186:	50 00       	.word	0x0050	; ????
     188:	10 78       	andi	r17, 0x80	; 128
     18a:	14 00       	.word	0x0014	; ????
     18c:	90 a8       	ldd	r9, Z+48	; 0x30
     18e:	78 00       	.word	0x0078	; ????
     190:	7c 08       	sbc	r7, r12
     192:	70 00       	.word	0x0070	; ????
     194:	50 74       	andi	r21, 0x40	; 64
     196:	40 00       	.word	0x0040	; ????
     198:	80 80       	ld	r8, Z
     19a:	74 00       	.word	0x0074	; ????
     19c:	7c 10       	cpse	r7, r12
     19e:	68 00       	.word	0x0068	; ????
     1a0:	44 7c       	andi	r20, 0xC4	; 196
     1a2:	40 00       	.word	0x0040	; ????
     1a4:	78 10       	cpse	r7, r8
     1a6:	78 00       	.word	0x0078	; ????
     1a8:	78 08       	sbc	r7, r8
     1aa:	70 00       	.word	0x0070	; ????
     1ac:	30 48       	sbci	r19, 0x80	; 128
     1ae:	30 00       	.word	0x0030	; ????
     1b0:	f8 28       	or	r15, r8
     1b2:	10 00       	.word	0x0010	; ????
     1b4:	30 48       	sbci	r19, 0x80	; 128
     1b6:	f8 00       	.word	0x00f8	; ????
     1b8:	78 10       	cpse	r7, r8
     1ba:	08 00       	.word	0x0008	; ????
     1bc:	50 58       	subi	r21, 0x80	; 128
     1be:	28 00       	.word	0x0028	; ????
     1c0:	08 3c       	cpi	r16, 0xC8	; 200
     1c2:	48 00       	.word	0x0048	; ????
     1c4:	38 40       	sbci	r19, 0x08	; 8
     1c6:	78 00       	.word	0x0078	; ????
     1c8:	38 40       	sbci	r19, 0x08	; 8
     1ca:	38 00       	.word	0x0038	; ????
     1cc:	78 20       	and	r7, r8
     1ce:	78 00       	.word	0x0078	; ????
     1d0:	48 30       	cpi	r20, 0x08	; 8
     1d2:	48 00       	.word	0x0048	; ????
     1d4:	98 a0       	ldd	r9, Y+32	; 0x20
     1d6:	78 00       	.word	0x0078	; ????
     1d8:	48 68       	ori	r20, 0x88	; 136
     1da:	58 00       	.word	0x0058	; ????
     1dc:	10 78       	andi	r17, 0x80	; 128
     1de:	84 00       	.word	0x0084	; ????
     1e0:	00 7c       	andi	r16, 0xC0	; 192
     1e2:	00 00       	nop
     1e4:	84 78       	andi	r24, 0x84	; 132
     1e6:	10 00       	.word	0x0010	; ????
     1e8:	08 04       	cpc	r0, r8
     1ea:	08 04       	cpc	r0, r8

000001ec <__ctors_end>:
     1ec:	11 24       	eor	r1, r1
     1ee:	1f be       	out	0x3f, r1	; 63
     1f0:	cf ef       	ldi	r28, 0xFF	; 255
     1f2:	d4 e0       	ldi	r29, 0x04	; 4
     1f4:	de bf       	out	0x3e, r29	; 62
     1f6:	cd bf       	out	0x3d, r28	; 61

000001f8 <__do_copy_data>:
     1f8:	12 e0       	ldi	r17, 0x02	; 2
     1fa:	a0 e0       	ldi	r26, 0x00	; 0
     1fc:	b1 e0       	ldi	r27, 0x01	; 1
     1fe:	e8 ed       	ldi	r30, 0xD8	; 216
     200:	f4 e1       	ldi	r31, 0x14	; 20
     202:	02 c0       	rjmp	.+4      	; 0x208 <__do_copy_data+0x10>
     204:	05 90       	lpm	r0, Z+
     206:	0d 92       	st	X+, r0
     208:	a4 3a       	cpi	r26, 0xA4	; 164
     20a:	b1 07       	cpc	r27, r17
     20c:	d9 f7       	brne	.-10     	; 0x204 <__do_copy_data+0xc>

0000020e <__do_clear_bss>:
     20e:	23 e0       	ldi	r18, 0x03	; 3
     210:	a4 ea       	ldi	r26, 0xA4	; 164
     212:	b2 e0       	ldi	r27, 0x02	; 2
     214:	01 c0       	rjmp	.+2      	; 0x218 <.do_clear_bss_start>

00000216 <.do_clear_bss_loop>:
     216:	1d 92       	st	X+, r1

00000218 <.do_clear_bss_start>:
     218:	ad 3b       	cpi	r26, 0xBD	; 189
     21a:	b2 07       	cpc	r27, r18
     21c:	e1 f7       	brne	.-8      	; 0x216 <.do_clear_bss_loop>
     21e:	0e 94 d5 01 	call	0x3aa	; 0x3aa <main>
     222:	0c 94 6a 0a 	jmp	0x14d4	; 0x14d4 <_exit>

00000226 <__bad_interrupt>:
     226:	0c 94 00 00 	jmp	0	; 0x0 <__vectors>

0000022a <__vector_1>:
volatile uint8_t slider_read	= 0;
volatile uint8_t btn_read		= 0;

volatile uint8_t read_state = ADC_JOY_X; 

ISR(INT0_vect){
     22a:	1f 92       	push	r1
     22c:	0f 92       	push	r0
     22e:	0f b6       	in	r0, 0x3f	; 63
     230:	0f 92       	push	r0
     232:	11 24       	eor	r1, r1
     234:	8f 93       	push	r24
     236:	ef 93       	push	r30
     238:	ff 93       	push	r31
	switch(read_state){
     23a:	80 91 06 01 	lds	r24, 0x0106
     23e:	85 30       	cpi	r24, 0x05	; 5
     240:	49 f0       	breq	.+18     	; 0x254 <__vector_1+0x2a>
     242:	18 f4       	brcc	.+6      	; 0x24a <__vector_1+0x20>
     244:	84 30       	cpi	r24, 0x04	; 4
     246:	91 f0       	breq	.+36     	; 0x26c <__vector_1+0x42>
     248:	34 c0       	rjmp	.+104    	; 0x2b2 <__vector_1+0x88>
     24a:	86 30       	cpi	r24, 0x06	; 6
     24c:	d9 f0       	breq	.+54     	; 0x284 <__vector_1+0x5a>
     24e:	87 30       	cpi	r24, 0x07	; 7
     250:	29 f1       	breq	.+74     	; 0x29c <__vector_1+0x72>
     252:	2f c0       	rjmp	.+94     	; 0x2b2 <__vector_1+0x88>
		case ADC_JOY_X:
			x_read = *adc_adr;
     254:	e0 91 07 01 	lds	r30, 0x0107
     258:	f0 91 08 01 	lds	r31, 0x0108
     25c:	80 81       	ld	r24, Z
     25e:	80 93 a7 02 	sts	0x02A7, r24
			*adc_adr = ADC_JOY_Y;
     262:	84 e0       	ldi	r24, 0x04	; 4
     264:	80 83       	st	Z, r24
			read_state = ADC_JOY_Y;
     266:	80 93 06 01 	sts	0x0106, r24
			break;
     26a:	23 c0       	rjmp	.+70     	; 0x2b2 <__vector_1+0x88>
		case ADC_JOY_Y:
			y_read = *adc_adr;
     26c:	e0 91 07 01 	lds	r30, 0x0107
     270:	f0 91 08 01 	lds	r31, 0x0108
     274:	80 81       	ld	r24, Z
     276:	80 93 a6 02 	sts	0x02A6, r24
			*adc_adr = ADC_SLIDER;
     27a:	86 e0       	ldi	r24, 0x06	; 6
     27c:	80 83       	st	Z, r24
			read_state = ADC_SLIDER;
     27e:	80 93 06 01 	sts	0x0106, r24
			break;
     282:	17 c0       	rjmp	.+46     	; 0x2b2 <__vector_1+0x88>
		case ADC_SLIDER:
			slider_read = *adc_adr;
     284:	e0 91 07 01 	lds	r30, 0x0107
     288:	f0 91 08 01 	lds	r31, 0x0108
     28c:	80 81       	ld	r24, Z
     28e:	80 93 a5 02 	sts	0x02A5, r24
			//printf("Slider: %i\n", slider_read);
			*adc_adr = ADC_BUTTON;
     292:	87 e0       	ldi	r24, 0x07	; 7
     294:	80 83       	st	Z, r24
			read_state = ADC_BUTTON;
     296:	80 93 06 01 	sts	0x0106, r24
			break;
     29a:	0b c0       	rjmp	.+22     	; 0x2b2 <__vector_1+0x88>
		case ADC_BUTTON:
			btn_read = *adc_adr;
     29c:	e0 91 07 01 	lds	r30, 0x0107
     2a0:	f0 91 08 01 	lds	r31, 0x0108
     2a4:	80 81       	ld	r24, Z
     2a6:	80 93 a4 02 	sts	0x02A4, r24
			*adc_adr = ADC_JOY_X;
     2aa:	85 e0       	ldi	r24, 0x05	; 5
     2ac:	80 83       	st	Z, r24
			read_state = ADC_JOY_X;
     2ae:	80 93 06 01 	sts	0x0106, r24
			break;
// 		default:
// 			printf("Error in INT0_vect\n");
// 			pass
	}
}
     2b2:	ff 91       	pop	r31
     2b4:	ef 91       	pop	r30
     2b6:	8f 91       	pop	r24
     2b8:	0f 90       	pop	r0
     2ba:	0f be       	out	0x3f, r0	; 63
     2bc:	0f 90       	pop	r0
     2be:	1f 90       	pop	r1
     2c0:	18 95       	reti

000002c2 <adc_init>:


void adc_init(void){
	cli();
     2c2:	f8 94       	cli
	GICR = (1 << INT0); // enable interupt
     2c4:	80 e4       	ldi	r24, 0x40	; 64
     2c6:	8b bf       	out	0x3b, r24	; 59
	EMCUCR |= (1 << SRW00);
     2c8:	86 b7       	in	r24, 0x36	; 54
     2ca:	84 60       	ori	r24, 0x04	; 4
     2cc:	86 bf       	out	0x36, r24	; 54
	
	*adc_adr = ADC_JOY_X;
     2ce:	e0 91 07 01 	lds	r30, 0x0107
     2d2:	f0 91 08 01 	lds	r31, 0x0108
     2d6:	85 e0       	ldi	r24, 0x05	; 5
     2d8:	80 83       	st	Z, r24
	sei();
     2da:	78 94       	sei
     2dc:	08 95       	ret

000002de <adc_direction_joy>:
	joystick_t a = {convert_range(x_read), convert_range(y_read)};
	return a;
}

direction_t adc_direction_joy(){
	if (abs(x_read-128) < ANALOG_THRESH && abs(y_read-128) < ANALOG_THRESH){
     2de:	20 91 a7 02 	lds	r18, 0x02A7
     2e2:	30 e0       	ldi	r19, 0x00	; 0
     2e4:	20 58       	subi	r18, 0x80	; 128
     2e6:	31 09       	sbc	r19, r1
     2e8:	c9 01       	movw	r24, r18
     2ea:	99 23       	and	r25, r25
     2ec:	24 f4       	brge	.+8      	; 0x2f6 <adc_direction_joy+0x18>
     2ee:	88 27       	eor	r24, r24
     2f0:	99 27       	eor	r25, r25
     2f2:	82 1b       	sub	r24, r18
     2f4:	93 0b       	sbc	r25, r19
     2f6:	49 97       	sbiw	r24, 0x19	; 25
     2f8:	7c f4       	brge	.+30     	; 0x318 <adc_direction_joy+0x3a>
     2fa:	20 91 a6 02 	lds	r18, 0x02A6
     2fe:	30 e0       	ldi	r19, 0x00	; 0
     300:	20 58       	subi	r18, 0x80	; 128
     302:	31 09       	sbc	r19, r1
     304:	c9 01       	movw	r24, r18
     306:	99 23       	and	r25, r25
     308:	24 f4       	brge	.+8      	; 0x312 <adc_direction_joy+0x34>
     30a:	88 27       	eor	r24, r24
     30c:	99 27       	eor	r25, r25
     30e:	82 1b       	sub	r24, r18
     310:	93 0b       	sbc	r25, r19
     312:	49 97       	sbiw	r24, 0x19	; 25
     314:	0c f4       	brge	.+2      	; 0x318 <adc_direction_joy+0x3a>
     316:	41 c0       	rjmp	.+130    	; 0x39a <adc_direction_joy+0xbc>
		return NEUTRAL;
	}
	
	if (x_read - 128 > abs(y_read - 128))
     318:	40 91 a7 02 	lds	r20, 0x02A7
     31c:	20 91 a6 02 	lds	r18, 0x02A6
     320:	50 e0       	ldi	r21, 0x00	; 0
     322:	40 58       	subi	r20, 0x80	; 128
     324:	51 09       	sbc	r21, r1
     326:	30 e0       	ldi	r19, 0x00	; 0
     328:	20 58       	subi	r18, 0x80	; 128
     32a:	31 09       	sbc	r19, r1
     32c:	c9 01       	movw	r24, r18
     32e:	99 23       	and	r25, r25
     330:	24 f4       	brge	.+8      	; 0x33a <adc_direction_joy+0x5c>
     332:	88 27       	eor	r24, r24
     334:	99 27       	eor	r25, r25
     336:	82 1b       	sub	r24, r18
     338:	93 0b       	sbc	r25, r19
     33a:	84 17       	cp	r24, r20
     33c:	95 07       	cpc	r25, r21
     33e:	7c f1       	brlt	.+94     	; 0x39e <adc_direction_joy+0xc0>
		return RIGHT;
	else if (x_read - 128 < - abs(y_read - 128))
     340:	40 91 a7 02 	lds	r20, 0x02A7
     344:	20 91 a6 02 	lds	r18, 0x02A6
     348:	50 e0       	ldi	r21, 0x00	; 0
     34a:	40 58       	subi	r20, 0x80	; 128
     34c:	51 09       	sbc	r21, r1
     34e:	30 e0       	ldi	r19, 0x00	; 0
     350:	20 58       	subi	r18, 0x80	; 128
     352:	31 09       	sbc	r19, r1
     354:	c9 01       	movw	r24, r18
     356:	99 23       	and	r25, r25
     358:	24 f4       	brge	.+8      	; 0x362 <adc_direction_joy+0x84>
     35a:	88 27       	eor	r24, r24
     35c:	99 27       	eor	r25, r25
     35e:	82 1b       	sub	r24, r18
     360:	93 0b       	sbc	r25, r19
     362:	91 95       	neg	r25
     364:	81 95       	neg	r24
     366:	91 09       	sbc	r25, r1
     368:	48 17       	cp	r20, r24
     36a:	59 07       	cpc	r21, r25
     36c:	d4 f0       	brlt	.+52     	; 0x3a2 <adc_direction_joy+0xc4>
		return LEFT;
	else if (y_read - 128 > abs(x_read - 128))
     36e:	40 91 a6 02 	lds	r20, 0x02A6
     372:	20 91 a7 02 	lds	r18, 0x02A7
     376:	50 e0       	ldi	r21, 0x00	; 0
     378:	40 58       	subi	r20, 0x80	; 128
     37a:	51 09       	sbc	r21, r1
     37c:	30 e0       	ldi	r19, 0x00	; 0
     37e:	20 58       	subi	r18, 0x80	; 128
     380:	31 09       	sbc	r19, r1
     382:	c9 01       	movw	r24, r18
     384:	99 23       	and	r25, r25
     386:	24 f4       	brge	.+8      	; 0x390 <adc_direction_joy+0xb2>
     388:	88 27       	eor	r24, r24
     38a:	99 27       	eor	r25, r25
     38c:	82 1b       	sub	r24, r18
     38e:	93 0b       	sbc	r25, r19
     390:	84 17       	cp	r24, r20
     392:	95 07       	cpc	r25, r21
     394:	44 f4       	brge	.+16     	; 0x3a6 <adc_direction_joy+0xc8>
		return UP;
     396:	82 e0       	ldi	r24, 0x02	; 2
     398:	08 95       	ret
	return a;
}

direction_t adc_direction_joy(){
	if (abs(x_read-128) < ANALOG_THRESH && abs(y_read-128) < ANALOG_THRESH){
		return NEUTRAL;
     39a:	84 e0       	ldi	r24, 0x04	; 4
     39c:	08 95       	ret
	}
	
	if (x_read - 128 > abs(y_read - 128))
		return RIGHT;
     39e:	81 e0       	ldi	r24, 0x01	; 1
     3a0:	08 95       	ret
	else if (x_read - 128 < - abs(y_read - 128))
		return LEFT;
     3a2:	80 e0       	ldi	r24, 0x00	; 0
     3a4:	08 95       	ret
	else if (y_read - 128 > abs(x_read - 128))
		return UP;
	else
		return DOWN;
     3a6:	83 e0       	ldi	r24, 0x03	; 3
	
}
     3a8:	08 95       	ret

000003aa <main>:
}


int main(void) {
	
	uart_init();
     3aa:	0e 94 02 06 	call	0xc04	; 0xc04 <uart_init>
	
	// SRAM init
	MCUCR |= (1 << SRE);
     3ae:	85 b7       	in	r24, 0x35	; 53
     3b0:	80 68       	ori	r24, 0x80	; 128
     3b2:	85 bf       	out	0x35, r24	; 53
	SFIOR |= (1 << XMM2);
     3b4:	80 b7       	in	r24, 0x30	; 48
     3b6:	80 62       	ori	r24, 0x20	; 32
     3b8:	80 bf       	out	0x30, r24	; 48
	
	// setup heap
	__malloc_heap_start = RAM_ADR;
     3ba:	80 e0       	ldi	r24, 0x00	; 0
     3bc:	98 e1       	ldi	r25, 0x18	; 24
     3be:	90 93 03 01 	sts	0x0103, r25
     3c2:	80 93 02 01 	sts	0x0102, r24
	__malloc_heap_end   = RAM_ADR + RAM_SIZE;
     3c6:	80 e0       	ldi	r24, 0x00	; 0
     3c8:	90 e2       	ldi	r25, 0x20	; 32
     3ca:	90 93 01 01 	sts	0x0101, r25
     3ce:	80 93 00 01 	sts	0x0100, r24
	
	
	
	adc_init(); // ADC init (must be after SRAM init)
     3d2:	0e 94 61 01 	call	0x2c2	; 0x2c2 <adc_init>
	
	oled_reset();
     3d6:	0e 94 64 05 	call	0xac8	; 0xac8 <oled_reset>

	// setup printf
	stdout = &uart_out; // printf defaults to oled
     3da:	c9 eb       	ldi	r28, 0xB9	; 185
     3dc:	d3 e0       	ldi	r29, 0x03	; 3
     3de:	09 e2       	ldi	r16, 0x29	; 41
     3e0:	11 e0       	ldi	r17, 0x01	; 1
     3e2:	19 83       	std	Y+1, r17	; 0x01
     3e4:	08 83       	st	Y, r16
	stdin  = &uart_in;
     3e6:	8b e1       	ldi	r24, 0x1B	; 27
     3e8:	91 e0       	ldi	r25, 0x01	; 1
     3ea:	90 93 b8 03 	sts	0x03B8, r25
     3ee:	80 93 b7 03 	sts	0x03B7, r24
	
	
	menu_init();
     3f2:	0e 94 d5 02 	call	0x5aa	; 0x5aa <menu_init>
	
	printf("Running\n");
     3f6:	8a e1       	ldi	r24, 0x1A	; 26
     3f8:	92 e0       	ldi	r25, 0x02	; 2
     3fa:	0e 94 8e 07 	call	0xf1c	; 0xf1c <puts>
	
	
	printf("Entering loop\n");
     3fe:	82 e2       	ldi	r24, 0x22	; 34
     400:	92 e0       	ldi	r25, 0x02	; 2
     402:	0e 94 8e 07 	call	0xf1c	; 0xf1c <puts>
	joystick_t joystick = {0,0};
	touch_t touch = {0,0};
	stdout = &uart_out;
     406:	19 83       	std	Y+1, r17	; 0x01
     408:	08 83       	st	Y, r16
	
	while(1) {
		menu_update_subchoice();
     40a:	0e 94 24 03 	call	0x648	; 0x648 <menu_update_subchoice>
     40e:	fd cf       	rjmp	.-6      	; 0x40a <main+0x60>

00000410 <menu_init_menu>:
	//EMCUCR &= ~(1 << ISC2);
	//GICR   |= (1<<INT2);
	//sei();
}

menu_t* menu_init_menu(char* title, menu_t* parent){
     410:	ef 92       	push	r14
     412:	ff 92       	push	r15
     414:	0f 93       	push	r16
     416:	1f 93       	push	r17
     418:	cf 93       	push	r28
     41a:	df 93       	push	r29
     41c:	7c 01       	movw	r14, r24
     41e:	eb 01       	movw	r28, r22
	menu_t* menu = (menu_t*) malloc(sizeof(menu_t));	
     420:	88 e2       	ldi	r24, 0x28	; 40
     422:	90 e0       	ldi	r25, 0x00	; 0
     424:	0e 94 12 06 	call	0xc24	; 0xc24 <malloc>
     428:	8c 01       	movw	r16, r24
     42a:	fc 01       	movw	r30, r24
     42c:	88 e1       	ldi	r24, 0x18	; 24
	
	for (uint8_t i = 0; i <= MAX_TITLE_LENGTH ; i++){
		menu->title[i] = '\0';
     42e:	11 92       	st	Z+, r1
     430:	81 50       	subi	r24, 0x01	; 1
}

menu_t* menu_init_menu(char* title, menu_t* parent){
	menu_t* menu = (menu_t*) malloc(sizeof(menu_t));	
	
	for (uint8_t i = 0; i <= MAX_TITLE_LENGTH ; i++){
     432:	e9 f7       	brne	.-6      	; 0x42e <menu_init_menu+0x1e>
		menu->title[i] = '\0';
	}
	strncpy(menu->title, title, MAX_TITLE_LENGTH);	// Huske å ha plass til null i slutten
     434:	47 e1       	ldi	r20, 0x17	; 23
     436:	50 e0       	ldi	r21, 0x00	; 0
     438:	b7 01       	movw	r22, r14
     43a:	c8 01       	movw	r24, r16
     43c:	0e 94 39 07 	call	0xe72	; 0xe72 <strncpy>
     440:	f8 01       	movw	r30, r16
	
	for (uint8_t i = 0; i < MAX_SUBMENUS ; i++){
     442:	80 e0       	ldi	r24, 0x00	; 0
		menu->submenus[i] = (menu_t*)NULL;
     444:	11 8e       	std	Z+25, r1	; 0x19
     446:	10 8e       	std	Z+24, r1	; 0x18
	for (uint8_t i = 0; i <= MAX_TITLE_LENGTH ; i++){
		menu->title[i] = '\0';
	}
	strncpy(menu->title, title, MAX_TITLE_LENGTH);	// Huske å ha plass til null i slutten
	
	for (uint8_t i = 0; i < MAX_SUBMENUS ; i++){
     448:	8f 5f       	subi	r24, 0xFF	; 255
     44a:	32 96       	adiw	r30, 0x02	; 2
     44c:	87 30       	cpi	r24, 0x07	; 7
     44e:	d1 f7       	brne	.-12     	; 0x444 <menu_init_menu+0x34>
		menu->submenus[i] = (menu_t*)NULL;
	}
	
	if (parent == NULL){
     450:	20 97       	sbiw	r28, 0x00	; 0
     452:	31 f4       	brne	.+12     	; 0x460 <menu_init_menu+0x50>
		menu->parent = menu;
     454:	f8 01       	movw	r30, r16
     456:	17 a3       	std	Z+39, r17	; 0x27
     458:	06 a3       	std	Z+38, r16	; 0x26
				return menu;
			}
		}
		return NULL; // return NULL if no more room
	}
	return menu;
     45a:	80 2f       	mov	r24, r16
     45c:	91 2f       	mov	r25, r17
     45e:	25 c0       	rjmp	.+74     	; 0x4aa <menu_init_menu+0x9a>
	}
	
	if (parent == NULL){
		menu->parent = menu;
	} else {
		menu->parent = parent;
     460:	f8 01       	movw	r30, r16
     462:	d7 a3       	std	Z+39, r29	; 0x27
     464:	c6 a3       	std	Z+38, r28	; 0x26
		
		for (int i=0; i < MAX_SUBMENUS; i++){
			if (parent->submenus[i] == NULL){
     466:	88 8d       	ldd	r24, Y+24	; 0x18
     468:	99 8d       	ldd	r25, Y+25	; 0x19
     46a:	89 2b       	or	r24, r25
     46c:	41 f0       	breq	.+16     	; 0x47e <menu_init_menu+0x6e>
     46e:	fe 01       	movw	r30, r28
	if (parent == NULL){
		menu->parent = menu;
	} else {
		menu->parent = parent;
		
		for (int i=0; i < MAX_SUBMENUS; i++){
     470:	21 e0       	ldi	r18, 0x01	; 1
     472:	30 e0       	ldi	r19, 0x00	; 0
			if (parent->submenus[i] == NULL){
     474:	82 8d       	ldd	r24, Z+26	; 0x1a
     476:	93 8d       	ldd	r25, Z+27	; 0x1b
     478:	89 2b       	or	r24, r25
     47a:	79 f4       	brne	.+30     	; 0x49a <menu_init_menu+0x8a>
     47c:	02 c0       	rjmp	.+4      	; 0x482 <menu_init_menu+0x72>
	if (parent == NULL){
		menu->parent = menu;
	} else {
		menu->parent = parent;
		
		for (int i=0; i < MAX_SUBMENUS; i++){
     47e:	20 e0       	ldi	r18, 0x00	; 0
     480:	30 e0       	ldi	r19, 0x00	; 0
			if (parent->submenus[i] == NULL){
				parent->submenus[i] = menu;
     482:	24 5f       	subi	r18, 0xF4	; 244
     484:	3f 4f       	sbci	r19, 0xFF	; 255
     486:	c9 01       	movw	r24, r18
     488:	88 0f       	add	r24, r24
     48a:	99 1f       	adc	r25, r25
     48c:	c8 0f       	add	r28, r24
     48e:	d9 1f       	adc	r29, r25
     490:	19 83       	std	Y+1, r17	; 0x01
     492:	08 83       	st	Y, r16
				return menu;
     494:	80 2f       	mov	r24, r16
     496:	91 2f       	mov	r25, r17
     498:	08 c0       	rjmp	.+16     	; 0x4aa <menu_init_menu+0x9a>
	if (parent == NULL){
		menu->parent = menu;
	} else {
		menu->parent = parent;
		
		for (int i=0; i < MAX_SUBMENUS; i++){
     49a:	2f 5f       	subi	r18, 0xFF	; 255
     49c:	3f 4f       	sbci	r19, 0xFF	; 255
     49e:	32 96       	adiw	r30, 0x02	; 2
     4a0:	27 30       	cpi	r18, 0x07	; 7
     4a2:	31 05       	cpc	r19, r1
     4a4:	39 f7       	brne	.-50     	; 0x474 <menu_init_menu+0x64>
			if (parent->submenus[i] == NULL){
				parent->submenus[i] = menu;
				return menu;
			}
		}
		return NULL; // return NULL if no more room
     4a6:	80 e0       	ldi	r24, 0x00	; 0
     4a8:	90 e0       	ldi	r25, 0x00	; 0
	}
	return menu;
}
     4aa:	df 91       	pop	r29
     4ac:	cf 91       	pop	r28
     4ae:	1f 91       	pop	r17
     4b0:	0f 91       	pop	r16
     4b2:	ff 90       	pop	r15
     4b4:	ef 90       	pop	r14
     4b6:	08 95       	ret

000004b8 <menu_print_current>:
	
	menu_print_current();
}


void menu_print_current(){
     4b8:	cf 92       	push	r12
     4ba:	df 92       	push	r13
     4bc:	ef 92       	push	r14
     4be:	ff 92       	push	r15
     4c0:	0f 93       	push	r16
     4c2:	1f 93       	push	r17
     4c4:	cf 93       	push	r28
     4c6:	df 93       	push	r29
	oled_home();
     4c8:	0e 94 1a 04 	call	0x834	; 0x834 <oled_home>
	fprintf(&oled_out, "%s\n", current->title);
     4cc:	80 91 b2 02 	lds	r24, 0x02B2
     4d0:	8f 93       	push	r24
     4d2:	80 91 b1 02 	lds	r24, 0x02B1
     4d6:	8f 93       	push	r24
     4d8:	80 e3       	ldi	r24, 0x30	; 48
     4da:	92 e0       	ldi	r25, 0x02	; 2
     4dc:	9f 93       	push	r25
     4de:	8f 93       	push	r24
     4e0:	89 e0       	ldi	r24, 0x09	; 9
     4e2:	91 e0       	ldi	r25, 0x01	; 1
     4e4:	9f 93       	push	r25
     4e6:	8f 93       	push	r24
     4e8:	0e 94 48 07 	call	0xe90	; 0xe90 <fprintf>
     4ec:	0f 90       	pop	r0
     4ee:	0f 90       	pop	r0
     4f0:	0f 90       	pop	r0
     4f2:	0f 90       	pop	r0
     4f4:	0f 90       	pop	r0
     4f6:	0f 90       	pop	r0
     4f8:	c0 e0       	ldi	r28, 0x00	; 0
     4fa:	d0 e0       	ldi	r29, 0x00	; 0
			if (i == subchoice)
				fprintf(&oled_out, "->");
			else
				fprintf(&oled_out, "  ");
			
			fprintf(&oled_out, "%s\n", current->submenus[i]->title);
     4fc:	0f 2e       	mov	r0, r31
     4fe:	f0 e3       	ldi	r31, 0x30	; 48
     500:	ef 2e       	mov	r14, r31
     502:	f2 e0       	ldi	r31, 0x02	; 2
     504:	ff 2e       	mov	r15, r31
     506:	f0 2d       	mov	r31, r0
     508:	09 e0       	ldi	r16, 0x09	; 9
     50a:	11 e0       	ldi	r17, 0x01	; 1
void menu_print_current(){
	oled_home();
	fprintf(&oled_out, "%s\n", current->title);
	
	for (uint8_t i = 0; i < MAX_SUBMENUS ; i++){
		if (current->submenus[i] != NULL){
     50c:	6e 01       	movw	r12, r28
     50e:	80 91 b1 02 	lds	r24, 0x02B1
     512:	90 91 b2 02 	lds	r25, 0x02B2
     516:	de 01       	movw	r26, r28
     518:	1c 96       	adiw	r26, 0x0c	; 12
     51a:	aa 0f       	add	r26, r26
     51c:	bb 1f       	adc	r27, r27
     51e:	a8 0f       	add	r26, r24
     520:	b9 1f       	adc	r27, r25
     522:	8d 91       	ld	r24, X+
     524:	9c 91       	ld	r25, X
     526:	89 2b       	or	r24, r25
     528:	91 f1       	breq	.+100    	; 0x58e <__stack+0x8f>
			if (i == subchoice)
     52a:	80 91 a8 02 	lds	r24, 0x02A8
     52e:	c8 13       	cpse	r28, r24
     530:	0a c0       	rjmp	.+20     	; 0x546 <__stack+0x47>
				fprintf(&oled_out, "->");
     532:	98 01       	movw	r18, r16
     534:	42 e0       	ldi	r20, 0x02	; 2
     536:	50 e0       	ldi	r21, 0x00	; 0
     538:	61 e0       	ldi	r22, 0x01	; 1
     53a:	70 e0       	ldi	r23, 0x00	; 0
     53c:	84 e3       	ldi	r24, 0x34	; 52
     53e:	92 e0       	ldi	r25, 0x02	; 2
     540:	0e 94 5a 07 	call	0xeb4	; 0xeb4 <fwrite>
     544:	09 c0       	rjmp	.+18     	; 0x558 <__stack+0x59>
			else
				fprintf(&oled_out, "  ");
     546:	98 01       	movw	r18, r16
     548:	42 e0       	ldi	r20, 0x02	; 2
     54a:	50 e0       	ldi	r21, 0x00	; 0
     54c:	61 e0       	ldi	r22, 0x01	; 1
     54e:	70 e0       	ldi	r23, 0x00	; 0
     550:	87 e3       	ldi	r24, 0x37	; 55
     552:	92 e0       	ldi	r25, 0x02	; 2
     554:	0e 94 5a 07 	call	0xeb4	; 0xeb4 <fwrite>
			
			fprintf(&oled_out, "%s\n", current->submenus[i]->title);
     558:	e0 91 b1 02 	lds	r30, 0x02B1
     55c:	f0 91 b2 02 	lds	r31, 0x02B2
     560:	8c e0       	ldi	r24, 0x0C	; 12
     562:	c8 0e       	add	r12, r24
     564:	d1 1c       	adc	r13, r1
     566:	cc 0c       	add	r12, r12
     568:	dd 1c       	adc	r13, r13
     56a:	ec 0d       	add	r30, r12
     56c:	fd 1d       	adc	r31, r13
     56e:	81 81       	ldd	r24, Z+1	; 0x01
     570:	8f 93       	push	r24
     572:	80 81       	ld	r24, Z
     574:	8f 93       	push	r24
     576:	ff 92       	push	r15
     578:	ef 92       	push	r14
     57a:	1f 93       	push	r17
     57c:	0f 93       	push	r16
     57e:	0e 94 48 07 	call	0xe90	; 0xe90 <fprintf>
     582:	0f 90       	pop	r0
     584:	0f 90       	pop	r0
     586:	0f 90       	pop	r0
     588:	0f 90       	pop	r0
     58a:	0f 90       	pop	r0
     58c:	0f 90       	pop	r0
     58e:	21 96       	adiw	r28, 0x01	; 1

void menu_print_current(){
	oled_home();
	fprintf(&oled_out, "%s\n", current->title);
	
	for (uint8_t i = 0; i < MAX_SUBMENUS ; i++){
     590:	c7 30       	cpi	r28, 0x07	; 7
     592:	d1 05       	cpc	r29, r1
     594:	09 f0       	breq	.+2      	; 0x598 <__stack+0x99>
     596:	ba cf       	rjmp	.-140    	; 0x50c <__stack+0xd>
				fprintf(&oled_out, "  ");
			
			fprintf(&oled_out, "%s\n", current->submenus[i]->title);
		}
	}
}
     598:	df 91       	pop	r29
     59a:	cf 91       	pop	r28
     59c:	1f 91       	pop	r17
     59e:	0f 91       	pop	r16
     5a0:	ff 90       	pop	r15
     5a2:	ef 90       	pop	r14
     5a4:	df 90       	pop	r13
     5a6:	cf 90       	pop	r12
     5a8:	08 95       	ret

000005aa <menu_init>:
}

void menu_init(){
	//menu_click_init();
	
	head = menu_init_menu("Mainaaaaaaaaaaaaaaaaaaa", NULL);
     5aa:	60 e0       	ldi	r22, 0x00	; 0
     5ac:	70 e0       	ldi	r23, 0x00	; 0
     5ae:	8a e3       	ldi	r24, 0x3A	; 58
     5b0:	92 e0       	ldi	r25, 0x02	; 2
     5b2:	0e 94 08 02 	call	0x410	; 0x410 <menu_init_menu>
     5b6:	90 93 b0 02 	sts	0x02B0, r25
     5ba:	80 93 af 02 	sts	0x02AF, r24
	menu_t* under2 = menu_init_menu("Under 2", head);
     5be:	bc 01       	movw	r22, r24
     5c0:	82 e5       	ldi	r24, 0x52	; 82
     5c2:	92 e0       	ldi	r25, 0x02	; 2
     5c4:	0e 94 08 02 	call	0x410	; 0x410 <menu_init_menu>
	menu_init_menu("Under under", under2);
     5c8:	bc 01       	movw	r22, r24
     5ca:	8a e5       	ldi	r24, 0x5A	; 90
     5cc:	92 e0       	ldi	r25, 0x02	; 2
     5ce:	0e 94 08 02 	call	0x410	; 0x410 <menu_init_menu>
	menu_init_menu("Under 1", head);
     5d2:	60 91 af 02 	lds	r22, 0x02AF
     5d6:	70 91 b0 02 	lds	r23, 0x02B0
     5da:	86 e6       	ldi	r24, 0x66	; 102
     5dc:	92 e0       	ldi	r25, 0x02	; 2
     5de:	0e 94 08 02 	call	0x410	; 0x410 <menu_init_menu>
	menu_init_menu("Under a", head);
     5e2:	60 91 af 02 	lds	r22, 0x02AF
     5e6:	70 91 b0 02 	lds	r23, 0x02B0
     5ea:	8e e6       	ldi	r24, 0x6E	; 110
     5ec:	92 e0       	ldi	r25, 0x02	; 2
     5ee:	0e 94 08 02 	call	0x410	; 0x410 <menu_init_menu>
	menu_init_menu("Under b", head);
     5f2:	60 91 af 02 	lds	r22, 0x02AF
     5f6:	70 91 b0 02 	lds	r23, 0x02B0
     5fa:	86 e7       	ldi	r24, 0x76	; 118
     5fc:	92 e0       	ldi	r25, 0x02	; 2
     5fe:	0e 94 08 02 	call	0x410	; 0x410 <menu_init_menu>
	menu_init_menu("Under c", head);
     602:	60 91 af 02 	lds	r22, 0x02AF
     606:	70 91 b0 02 	lds	r23, 0x02B0
     60a:	8e e7       	ldi	r24, 0x7E	; 126
     60c:	92 e0       	ldi	r25, 0x02	; 2
     60e:	0e 94 08 02 	call	0x410	; 0x410 <menu_init_menu>
	menu_init_menu("Under d", head);
     612:	60 91 af 02 	lds	r22, 0x02AF
     616:	70 91 b0 02 	lds	r23, 0x02B0
     61a:	86 e8       	ldi	r24, 0x86	; 134
     61c:	92 e0       	ldi	r25, 0x02	; 2
     61e:	0e 94 08 02 	call	0x410	; 0x410 <menu_init_menu>
	menu_init_menu("Under e", head);
     622:	60 91 af 02 	lds	r22, 0x02AF
     626:	70 91 b0 02 	lds	r23, 0x02B0
     62a:	8e e8       	ldi	r24, 0x8E	; 142
     62c:	92 e0       	ldi	r25, 0x02	; 2
     62e:	0e 94 08 02 	call	0x410	; 0x410 <menu_init_menu>
		
	current = head;
     632:	80 91 af 02 	lds	r24, 0x02AF
     636:	90 91 b0 02 	lds	r25, 0x02B0
     63a:	90 93 b2 02 	sts	0x02B2, r25
     63e:	80 93 b1 02 	sts	0x02B1, r24
	
	menu_print_current();
     642:	0e 94 5c 02 	call	0x4b8	; 0x4b8 <menu_print_current>
     646:	08 95       	ret

00000648 <menu_update_subchoice>:
	}
}

void menu_update_subchoice(){
	
	if (adc_direction_joy() == UP && subchoice > 0)
     648:	0e 94 6f 01 	call	0x2de	; 0x2de <adc_direction_joy>
     64c:	82 30       	cpi	r24, 0x02	; 2
     64e:	41 f4       	brne	.+16     	; 0x660 <menu_update_subchoice+0x18>
     650:	80 91 a8 02 	lds	r24, 0x02A8
     654:	88 23       	and	r24, r24
     656:	21 f0       	breq	.+8      	; 0x660 <menu_update_subchoice+0x18>
	{
		subchoice--;
     658:	81 50       	subi	r24, 0x01	; 1
     65a:	80 93 a8 02 	sts	0x02A8, r24
     65e:	62 c0       	rjmp	.+196    	; 0x724 <menu_update_subchoice+0xdc>
	}
	else if(adc_direction_joy() == DOWN && (subchoice+1) < MAX_SUBMENUS && current->submenus[subchoice+1] != NULL)
     660:	0e 94 6f 01 	call	0x2de	; 0x2de <adc_direction_joy>
     664:	83 30       	cpi	r24, 0x03	; 3
     666:	c9 f4       	brne	.+50     	; 0x69a <menu_update_subchoice+0x52>
     668:	20 91 a8 02 	lds	r18, 0x02A8
     66c:	82 2f       	mov	r24, r18
     66e:	90 e0       	ldi	r25, 0x00	; 0
     670:	01 96       	adiw	r24, 0x01	; 1
     672:	87 30       	cpi	r24, 0x07	; 7
     674:	91 05       	cpc	r25, r1
     676:	8c f4       	brge	.+34     	; 0x69a <menu_update_subchoice+0x52>
     678:	e0 91 b1 02 	lds	r30, 0x02B1
     67c:	f0 91 b2 02 	lds	r31, 0x02B2
     680:	0c 96       	adiw	r24, 0x0c	; 12
     682:	88 0f       	add	r24, r24
     684:	99 1f       	adc	r25, r25
     686:	e8 0f       	add	r30, r24
     688:	f9 1f       	adc	r31, r25
     68a:	80 81       	ld	r24, Z
     68c:	91 81       	ldd	r25, Z+1	; 0x01
     68e:	89 2b       	or	r24, r25
     690:	21 f0       	breq	.+8      	; 0x69a <menu_update_subchoice+0x52>
	{
		subchoice++;
     692:	2f 5f       	subi	r18, 0xFF	; 255
     694:	20 93 a8 02 	sts	0x02A8, r18
     698:	45 c0       	rjmp	.+138    	; 0x724 <menu_update_subchoice+0xdc>
	}
	else if (adc_direction_joy() == LEFT)
     69a:	0e 94 6f 01 	call	0x2de	; 0x2de <adc_direction_joy>
     69e:	81 11       	cpse	r24, r1
     6a0:	0f c0       	rjmp	.+30     	; 0x6c0 <menu_update_subchoice+0x78>
	{
		current = current->parent;
     6a2:	e0 91 b1 02 	lds	r30, 0x02B1
     6a6:	f0 91 b2 02 	lds	r31, 0x02B2
     6aa:	86 a1       	ldd	r24, Z+38	; 0x26
     6ac:	97 a1       	ldd	r25, Z+39	; 0x27
     6ae:	90 93 b2 02 	sts	0x02B2, r25
     6b2:	80 93 b1 02 	sts	0x02B1, r24
		subchoice = 0;
     6b6:	10 92 a8 02 	sts	0x02A8, r1
		oled_reset();
     6ba:	0e 94 64 05 	call	0xac8	; 0xac8 <oled_reset>
     6be:	32 c0       	rjmp	.+100    	; 0x724 <menu_update_subchoice+0xdc>
	}
	else if (adc_direction_joy() == RIGHT)
     6c0:	0e 94 6f 01 	call	0x2de	; 0x2de <adc_direction_joy>
     6c4:	81 30       	cpi	r24, 0x01	; 1
     6c6:	71 f5       	brne	.+92     	; 0x724 <menu_update_subchoice+0xdc>
	{
		if(current->submenus[subchoice]->submenus[0] == NULL)
     6c8:	80 91 b1 02 	lds	r24, 0x02B1
     6cc:	90 91 b2 02 	lds	r25, 0x02B2
     6d0:	e0 91 a8 02 	lds	r30, 0x02A8
     6d4:	f0 e0       	ldi	r31, 0x00	; 0
     6d6:	3c 96       	adiw	r30, 0x0c	; 12
     6d8:	ee 0f       	add	r30, r30
     6da:	ff 1f       	adc	r31, r31
     6dc:	e8 0f       	add	r30, r24
     6de:	f9 1f       	adc	r31, r25
     6e0:	01 90       	ld	r0, Z+
     6e2:	f0 81       	ld	r31, Z
     6e4:	e0 2d       	mov	r30, r0
     6e6:	80 8d       	ldd	r24, Z+24	; 0x18
     6e8:	91 8d       	ldd	r25, Z+25	; 0x19
     6ea:	89 2b       	or	r24, r25
     6ec:	99 f4       	brne	.+38     	; 0x714 <menu_update_subchoice+0xcc>
		{
			fprintf(&uart_out, "%s er valgt!\n", current->submenus[subchoice]->title);
     6ee:	ff 93       	push	r31
     6f0:	ef 93       	push	r30
     6f2:	86 e9       	ldi	r24, 0x96	; 150
     6f4:	92 e0       	ldi	r25, 0x02	; 2
     6f6:	9f 93       	push	r25
     6f8:	8f 93       	push	r24
     6fa:	89 e2       	ldi	r24, 0x29	; 41
     6fc:	91 e0       	ldi	r25, 0x01	; 1
     6fe:	9f 93       	push	r25
     700:	8f 93       	push	r24
     702:	0e 94 48 07 	call	0xe90	; 0xe90 <fprintf>
     706:	0f 90       	pop	r0
     708:	0f 90       	pop	r0
     70a:	0f 90       	pop	r0
     70c:	0f 90       	pop	r0
     70e:	0f 90       	pop	r0
     710:	0f 90       	pop	r0
     712:	08 c0       	rjmp	.+16     	; 0x724 <menu_update_subchoice+0xdc>
			// TODO: Nå vet vi at en sluttfunksjon er valgt, gjør handlingen!
		}
		else
		{
			current = current->submenus[subchoice];
     714:	f0 93 b2 02 	sts	0x02B2, r31
     718:	e0 93 b1 02 	sts	0x02B1, r30
			subchoice = 0;
     71c:	10 92 a8 02 	sts	0x02A8, r1
			oled_reset();
     720:	0e 94 64 05 	call	0xac8	; 0xac8 <oled_reset>
		}
	}
	
	menu_print_current();
     724:	0e 94 5c 02 	call	0x4b8	; 0x4b8 <menu_print_current>
     728:	08 95       	ret

0000072a <oled_init>:
	_delay_us(1); // delay increased to 1000 to make debug easier, works without any delay
	*((uint8_t *)OLED_D_ADR) = data;
}

void oled_init(){
	cli();
     72a:	f8 94       	cli
	#else
		//round up by default
		__ticks_dc = (uint32_t)(ceil(fabs(__tmp)));
	#endif

	__builtin_avr_delay_cycles(__ticks_dc);
     72c:	00 c0       	rjmp	.+0      	; 0x72e <oled_init+0x4>
     72e:	00 c0       	rjmp	.+0      	; 0x730 <oled_init+0x6>
     730:	00 00       	nop
	
}

void write_c(uint8_t cmd){
	_delay_us(1);
	*((uint8_t *)OLED_C_ADR) = cmd;
     732:	8e ea       	ldi	r24, 0xAE	; 174
     734:	80 93 00 10 	sts	0x1000, r24
     738:	00 c0       	rjmp	.+0      	; 0x73a <oled_init+0x10>
     73a:	00 c0       	rjmp	.+0      	; 0x73c <oled_init+0x12>
     73c:	00 00       	nop
     73e:	81 ea       	ldi	r24, 0xA1	; 161
     740:	80 93 00 10 	sts	0x1000, r24
     744:	00 c0       	rjmp	.+0      	; 0x746 <oled_init+0x1c>
     746:	00 c0       	rjmp	.+0      	; 0x748 <oled_init+0x1e>
     748:	00 00       	nop
     74a:	8a ed       	ldi	r24, 0xDA	; 218
     74c:	80 93 00 10 	sts	0x1000, r24
     750:	00 c0       	rjmp	.+0      	; 0x752 <oled_init+0x28>
     752:	00 c0       	rjmp	.+0      	; 0x754 <oled_init+0x2a>
     754:	00 00       	nop
     756:	82 e1       	ldi	r24, 0x12	; 18
     758:	80 93 00 10 	sts	0x1000, r24
     75c:	00 c0       	rjmp	.+0      	; 0x75e <oled_init+0x34>
     75e:	00 c0       	rjmp	.+0      	; 0x760 <oled_init+0x36>
     760:	00 00       	nop
     762:	88 ec       	ldi	r24, 0xC8	; 200
     764:	80 93 00 10 	sts	0x1000, r24
     768:	00 c0       	rjmp	.+0      	; 0x76a <oled_init+0x40>
     76a:	00 c0       	rjmp	.+0      	; 0x76c <oled_init+0x42>
     76c:	00 00       	nop
     76e:	88 ea       	ldi	r24, 0xA8	; 168
     770:	80 93 00 10 	sts	0x1000, r24
     774:	00 c0       	rjmp	.+0      	; 0x776 <oled_init+0x4c>
     776:	00 c0       	rjmp	.+0      	; 0x778 <oled_init+0x4e>
     778:	00 00       	nop
     77a:	8f e3       	ldi	r24, 0x3F	; 63
     77c:	80 93 00 10 	sts	0x1000, r24
     780:	00 c0       	rjmp	.+0      	; 0x782 <oled_init+0x58>
     782:	00 c0       	rjmp	.+0      	; 0x784 <oled_init+0x5a>
     784:	00 00       	nop
     786:	85 ed       	ldi	r24, 0xD5	; 213
     788:	80 93 00 10 	sts	0x1000, r24
     78c:	00 c0       	rjmp	.+0      	; 0x78e <oled_init+0x64>
     78e:	00 c0       	rjmp	.+0      	; 0x790 <oled_init+0x66>
     790:	00 00       	nop
     792:	80 e8       	ldi	r24, 0x80	; 128
     794:	80 93 00 10 	sts	0x1000, r24
     798:	00 c0       	rjmp	.+0      	; 0x79a <oled_init+0x70>
     79a:	00 c0       	rjmp	.+0      	; 0x79c <oled_init+0x72>
     79c:	00 00       	nop
     79e:	81 e8       	ldi	r24, 0x81	; 129
     7a0:	80 93 00 10 	sts	0x1000, r24
     7a4:	00 c0       	rjmp	.+0      	; 0x7a6 <oled_init+0x7c>
     7a6:	00 c0       	rjmp	.+0      	; 0x7a8 <oled_init+0x7e>
     7a8:	00 00       	nop
     7aa:	80 e5       	ldi	r24, 0x50	; 80
     7ac:	80 93 00 10 	sts	0x1000, r24
     7b0:	00 c0       	rjmp	.+0      	; 0x7b2 <oled_init+0x88>
     7b2:	00 c0       	rjmp	.+0      	; 0x7b4 <oled_init+0x8a>
     7b4:	00 00       	nop
     7b6:	89 ed       	ldi	r24, 0xD9	; 217
     7b8:	80 93 00 10 	sts	0x1000, r24
     7bc:	00 c0       	rjmp	.+0      	; 0x7be <oled_init+0x94>
     7be:	00 c0       	rjmp	.+0      	; 0x7c0 <oled_init+0x96>
     7c0:	00 00       	nop
     7c2:	81 e2       	ldi	r24, 0x21	; 33
     7c4:	80 93 00 10 	sts	0x1000, r24
     7c8:	00 c0       	rjmp	.+0      	; 0x7ca <oled_init+0xa0>
     7ca:	00 c0       	rjmp	.+0      	; 0x7cc <oled_init+0xa2>
     7cc:	00 00       	nop
     7ce:	80 e2       	ldi	r24, 0x20	; 32
     7d0:	80 93 00 10 	sts	0x1000, r24
     7d4:	00 c0       	rjmp	.+0      	; 0x7d6 <oled_init+0xac>
     7d6:	00 c0       	rjmp	.+0      	; 0x7d8 <oled_init+0xae>
     7d8:	00 00       	nop
     7da:	10 92 00 10 	sts	0x1000, r1
     7de:	00 c0       	rjmp	.+0      	; 0x7e0 <oled_init+0xb6>
     7e0:	00 c0       	rjmp	.+0      	; 0x7e2 <oled_init+0xb8>
     7e2:	00 00       	nop
     7e4:	8b ed       	ldi	r24, 0xDB	; 219
     7e6:	80 93 00 10 	sts	0x1000, r24
     7ea:	00 c0       	rjmp	.+0      	; 0x7ec <oled_init+0xc2>
     7ec:	00 c0       	rjmp	.+0      	; 0x7ee <oled_init+0xc4>
     7ee:	00 00       	nop
     7f0:	80 e3       	ldi	r24, 0x30	; 48
     7f2:	80 93 00 10 	sts	0x1000, r24
     7f6:	00 c0       	rjmp	.+0      	; 0x7f8 <oled_init+0xce>
     7f8:	00 c0       	rjmp	.+0      	; 0x7fa <oled_init+0xd0>
     7fa:	00 00       	nop
     7fc:	8d ea       	ldi	r24, 0xAD	; 173
     7fe:	80 93 00 10 	sts	0x1000, r24
     802:	00 c0       	rjmp	.+0      	; 0x804 <oled_init+0xda>
     804:	00 c0       	rjmp	.+0      	; 0x806 <oled_init+0xdc>
     806:	00 00       	nop
     808:	10 92 00 10 	sts	0x1000, r1
     80c:	00 c0       	rjmp	.+0      	; 0x80e <oled_init+0xe4>
     80e:	00 c0       	rjmp	.+0      	; 0x810 <oled_init+0xe6>
     810:	00 00       	nop
     812:	84 ea       	ldi	r24, 0xA4	; 164
     814:	80 93 00 10 	sts	0x1000, r24
     818:	00 c0       	rjmp	.+0      	; 0x81a <oled_init+0xf0>
     81a:	00 c0       	rjmp	.+0      	; 0x81c <oled_init+0xf2>
     81c:	00 00       	nop
     81e:	86 ea       	ldi	r24, 0xA6	; 166
     820:	80 93 00 10 	sts	0x1000, r24
     824:	00 c0       	rjmp	.+0      	; 0x826 <oled_init+0xfc>
     826:	00 c0       	rjmp	.+0      	; 0x828 <oled_init+0xfe>
     828:	00 00       	nop
     82a:	8f ea       	ldi	r24, 0xAF	; 175
     82c:	80 93 00 10 	sts	0x1000, r24
	write_c(SET_FOLLOW_RAM);
	write_c(SET_NORMAL_DISP);
	write_c(SET_DISP_ON);
	
	//oled_autorefresh_init();
	sei();
     830:	78 94       	sei
     832:	08 95       	ret

00000834 <oled_home>:
	oled_home();
	oled_update();
}

void oled_home(){
	xpos = 0;
     834:	10 92 aa 02 	sts	0x02AA, r1
	ypos = 0;
     838:	10 92 a9 02 	sts	0x02A9, r1
     83c:	08 95       	ret

0000083e <oled_newline>:
}

void oled_cartridgereturn(){
	xpos = 0;
     83e:	10 92 aa 02 	sts	0x02AA, r1
}

void oled_newline(){
	oled_cartridgereturn();
	oled_goto_line((ypos+1) % OLED_PAGES);
     842:	80 91 a9 02 	lds	r24, 0x02A9
     846:	90 e0       	ldi	r25, 0x00	; 0
     848:	01 96       	adiw	r24, 0x01	; 1
     84a:	87 70       	andi	r24, 0x07	; 7
     84c:	90 78       	andi	r25, 0x80	; 128
     84e:	80 93 a9 02 	sts	0x02A9, r24
     852:	08 95       	ret

00000854 <oled_goto_nextpos>:

void oled_goto_nextpos(){
	// wrap around is applied to both xpos and ypos
	
	// increment xpos and ypos
	xpos = (xpos + 1) % OLED_WIDTH;
     854:	20 91 aa 02 	lds	r18, 0x02AA
     858:	30 e0       	ldi	r19, 0x00	; 0
     85a:	2f 5f       	subi	r18, 0xFF	; 255
     85c:	3f 4f       	sbci	r19, 0xFF	; 255
     85e:	2f 77       	andi	r18, 0x7F	; 127
     860:	30 78       	andi	r19, 0x80	; 128
     862:	20 93 aa 02 	sts	0x02AA, r18
	
	ypos = (ypos + (xpos==0)) % OLED_PAGES; // increments ypos if xpos wrapped around to zero
     866:	80 91 a9 02 	lds	r24, 0x02A9
     86a:	90 e0       	ldi	r25, 0x00	; 0
     86c:	41 e0       	ldi	r20, 0x01	; 1
     86e:	50 e0       	ldi	r21, 0x00	; 0
     870:	22 23       	and	r18, r18
     872:	11 f0       	breq	.+4      	; 0x878 <oled_goto_nextpos+0x24>
     874:	40 e0       	ldi	r20, 0x00	; 0
     876:	50 e0       	ldi	r21, 0x00	; 0
     878:	84 0f       	add	r24, r20
     87a:	95 1f       	adc	r25, r21
     87c:	87 70       	andi	r24, 0x07	; 7
     87e:	90 78       	andi	r25, 0x80	; 128
     880:	99 23       	and	r25, r25
     882:	24 f4       	brge	.+8      	; 0x88c <oled_goto_nextpos+0x38>
     884:	01 97       	sbiw	r24, 0x01	; 1
     886:	88 6f       	ori	r24, 0xF8	; 248
     888:	9f 6f       	ori	r25, 0xFF	; 255
     88a:	01 96       	adiw	r24, 0x01	; 1
     88c:	80 93 a9 02 	sts	0x02A9, r24
     890:	08 95       	ret

00000892 <oled_buffchar>:


// *** TEXT OUTPUT RELATED ***

// Place chr in buffer with correct numbering according to font indices
void oled_buffchar(char chr){
     892:	0f 93       	push	r16
     894:	1f 93       	push	r17
     896:	cf 93       	push	r28
     898:	df 93       	push	r29
     89a:	08 2f       	mov	r16, r24
	if(chr >= 0x20 && xpos < OLED_WIDTH && ypos < OLED_PAGES) {
     89c:	80 32       	cpi	r24, 0x20	; 32
     89e:	a0 f1       	brcs	.+104    	; 0x908 <oled_buffchar+0x76>
     8a0:	20 91 aa 02 	lds	r18, 0x02AA
     8a4:	22 23       	and	r18, r18
     8a6:	84 f1       	brlt	.+96     	; 0x908 <oled_buffchar+0x76>
     8a8:	80 91 a9 02 	lds	r24, 0x02A9
     8ac:	88 30       	cpi	r24, 0x08	; 8
     8ae:	60 f5       	brcc	.+88     	; 0x908 <oled_buffchar+0x76>
		
		if (xpos + fontwidth >= OLED_WIDTH){
     8b0:	30 e0       	ldi	r19, 0x00	; 0
     8b2:	2c 5f       	subi	r18, 0xFC	; 252
     8b4:	3f 4f       	sbci	r19, 0xFF	; 255
     8b6:	20 38       	cpi	r18, 0x80	; 128
     8b8:	31 05       	cpc	r19, r1
     8ba:	84 f1       	brlt	.+96     	; 0x91c <oled_buffchar+0x8a>
			oled_newline();	
     8bc:	0e 94 1f 04 	call	0x83e	; 0x83e <oled_newline>
     8c0:	2d c0       	rjmp	.+90     	; 0x91c <oled_buffchar+0x8a>
			*/		
		}

		// write char
		for (uint8_t seg = 0; seg < fontwidth; ++seg){
			buffer[ypos*OLED_WIDTH + xpos] = pgm_read_word(&font[(chr - 0x20)*fontwidth + seg]);
     8c2:	80 91 a9 02 	lds	r24, 0x02A9
     8c6:	a0 91 aa 02 	lds	r26, 0x02AA
     8ca:	b0 e0       	ldi	r27, 0x00	; 0
     8cc:	90 e8       	ldi	r25, 0x80	; 128
     8ce:	89 9f       	mul	r24, r25
     8d0:	a0 0d       	add	r26, r0
     8d2:	b1 1d       	adc	r27, r1
     8d4:	11 24       	eor	r1, r1
     8d6:	80 91 17 01 	lds	r24, 0x0117
     8da:	90 91 18 01 	lds	r25, 0x0118
     8de:	a8 0f       	add	r26, r24
     8e0:	b9 1f       	adc	r27, r25
     8e2:	ce 01       	movw	r24, r28
     8e4:	80 0f       	add	r24, r16
     8e6:	91 1f       	adc	r25, r17
     8e8:	e0 91 19 01 	lds	r30, 0x0119
     8ec:	f0 91 1a 01 	lds	r31, 0x011A
     8f0:	e8 0f       	add	r30, r24
     8f2:	f9 1f       	adc	r31, r25
     8f4:	85 91       	lpm	r24, Z+
     8f6:	94 91       	lpm	r25, Z
     8f8:	8c 93       	st	X, r24
			oled_goto_nextpos();
     8fa:	0e 94 2a 04 	call	0x854	; 0x854 <oled_goto_nextpos>
     8fe:	21 96       	adiw	r28, 0x01	; 1
			}
			*/		
		}

		// write char
		for (uint8_t seg = 0; seg < fontwidth; ++seg){
     900:	c4 30       	cpi	r28, 0x04	; 4
     902:	d1 05       	cpc	r29, r1
     904:	f1 f6       	brne	.-68     	; 0x8c2 <oled_buffchar+0x30>
     906:	14 c0       	rjmp	.+40     	; 0x930 <oled_buffchar+0x9e>
		// write spacing
		for (uint8_t _ = 0; _ < SPACING; ++_){
			buffer[ypos*OLED_WIDTH + xpos] = 0x00;
			oled_goto_nextpos();
		}
	} else if (chr == '\n'){
     908:	0a 30       	cpi	r16, 0x0A	; 10
     90a:	19 f4       	brne	.+6      	; 0x912 <oled_buffchar+0x80>
		oled_newline();
     90c:	0e 94 1f 04 	call	0x83e	; 0x83e <oled_newline>
     910:	22 c0       	rjmp	.+68     	; 0x956 <oled_buffchar+0xc4>
	} else if (chr == '\r'){
     912:	0d 30       	cpi	r16, 0x0D	; 13
     914:	01 f5       	brne	.+64     	; 0x956 <oled_buffchar+0xc4>
	xpos = 0;
	ypos = 0;
}

void oled_cartridgereturn(){
	xpos = 0;
     916:	10 92 aa 02 	sts	0x02AA, r1
     91a:	1d c0       	rjmp	.+58     	; 0x956 <oled_buffchar+0xc4>
			*/		
		}

		// write char
		for (uint8_t seg = 0; seg < fontwidth; ++seg){
			buffer[ypos*OLED_WIDTH + xpos] = pgm_read_word(&font[(chr - 0x20)*fontwidth + seg]);
     91c:	10 e0       	ldi	r17, 0x00	; 0
     91e:	00 52       	subi	r16, 0x20	; 32
     920:	11 09       	sbc	r17, r1
     922:	00 0f       	add	r16, r16
     924:	11 1f       	adc	r17, r17
     926:	00 0f       	add	r16, r16
     928:	11 1f       	adc	r17, r17
     92a:	c0 e0       	ldi	r28, 0x00	; 0
     92c:	d0 e0       	ldi	r29, 0x00	; 0
     92e:	c9 cf       	rjmp	.-110    	; 0x8c2 <oled_buffchar+0x30>
			oled_goto_nextpos();
		}
		
		// write spacing
		for (uint8_t _ = 0; _ < SPACING; ++_){
			buffer[ypos*OLED_WIDTH + xpos] = 0x00;
     930:	80 91 a9 02 	lds	r24, 0x02A9
     934:	e0 91 aa 02 	lds	r30, 0x02AA
     938:	f0 e0       	ldi	r31, 0x00	; 0
     93a:	90 e8       	ldi	r25, 0x80	; 128
     93c:	89 9f       	mul	r24, r25
     93e:	e0 0d       	add	r30, r0
     940:	f1 1d       	adc	r31, r1
     942:	11 24       	eor	r1, r1
     944:	80 91 17 01 	lds	r24, 0x0117
     948:	90 91 18 01 	lds	r25, 0x0118
     94c:	e8 0f       	add	r30, r24
     94e:	f9 1f       	adc	r31, r25
     950:	10 82       	st	Z, r1
			oled_goto_nextpos();
     952:	0e 94 2a 04 	call	0x854	; 0x854 <oled_goto_nextpos>
	} else if (chr == '\n'){
		oled_newline();
	} else if (chr == '\r'){
		oled_cartridgereturn();
	}
}
     956:	df 91       	pop	r29
     958:	cf 91       	pop	r28
     95a:	1f 91       	pop	r17
     95c:	0f 91       	pop	r16
     95e:	08 95       	ret

00000960 <oled_fill>:
     960:	00 c0       	rjmp	.+0      	; 0x962 <oled_fill+0x2>
     962:	00 c0       	rjmp	.+0      	; 0x964 <oled_fill+0x4>
     964:	00 00       	nop
	
}

void write_c(uint8_t cmd){
	_delay_us(1);
	*((uint8_t *)OLED_C_ADR) = cmd;
     966:	91 e2       	ldi	r25, 0x21	; 33
     968:	90 93 00 10 	sts	0x1000, r25
     96c:	00 c0       	rjmp	.+0      	; 0x96e <oled_fill+0xe>
     96e:	00 c0       	rjmp	.+0      	; 0x970 <oled_fill+0x10>
     970:	00 00       	nop
     972:	10 92 00 10 	sts	0x1000, r1
     976:	00 c0       	rjmp	.+0      	; 0x978 <oled_fill+0x18>
     978:	00 c0       	rjmp	.+0      	; 0x97a <oled_fill+0x1a>
     97a:	00 00       	nop
     97c:	9f e7       	ldi	r25, 0x7F	; 127
     97e:	90 93 00 10 	sts	0x1000, r25
     982:	00 c0       	rjmp	.+0      	; 0x984 <oled_fill+0x24>
     984:	00 c0       	rjmp	.+0      	; 0x986 <oled_fill+0x26>
     986:	00 00       	nop
     988:	92 e2       	ldi	r25, 0x22	; 34
     98a:	90 93 00 10 	sts	0x1000, r25
     98e:	00 c0       	rjmp	.+0      	; 0x990 <oled_fill+0x30>
     990:	00 c0       	rjmp	.+0      	; 0x992 <oled_fill+0x32>
     992:	00 00       	nop
     994:	10 92 00 10 	sts	0x1000, r1
     998:	00 c0       	rjmp	.+0      	; 0x99a <oled_fill+0x3a>
     99a:	00 c0       	rjmp	.+0      	; 0x99c <oled_fill+0x3c>
     99c:	00 00       	nop
     99e:	97 e0       	ldi	r25, 0x07	; 7
     9a0:	90 93 00 10 	sts	0x1000, r25
     9a4:	60 e0       	ldi	r22, 0x00	; 0
     9a6:	70 e0       	ldi	r23, 0x00	; 0
	oled_update();
	return 0;
}

// *** DRAWING RELATED ***
void oled_fill(uint8_t val){
     9a8:	a0 e0       	ldi	r26, 0x00	; 0
     9aa:	90 e0       	ldi	r25, 0x00	; 0
     9ac:	15 c0       	rjmp	.+42     	; 0x9d8 <oled_fill+0x78>
     9ae:	a9 01       	movw	r20, r18
     9b0:	46 0f       	add	r20, r22
     9b2:	57 1f       	adc	r21, r23
	write_c(SET_COL_ADR);  write_c(0x00); write_c(OLED_WIDTH-1);
	write_c(SET_PAGE_ADR); write_c(0x00); write_c(OLED_PAGES-1);
	
	for (int page = 0; page<OLED_PAGES; ++page){
		for (int seg = 0; seg<OLED_WIDTH; ++seg){
			buffer[page*OLED_WIDTH + seg] = val;
     9b4:	e0 91 17 01 	lds	r30, 0x0117
     9b8:	f0 91 18 01 	lds	r31, 0x0118
     9bc:	e4 0f       	add	r30, r20
     9be:	f5 1f       	adc	r31, r21
     9c0:	80 83       	st	Z, r24
void oled_fill(uint8_t val){
	write_c(SET_COL_ADR);  write_c(0x00); write_c(OLED_WIDTH-1);
	write_c(SET_PAGE_ADR); write_c(0x00); write_c(OLED_PAGES-1);
	
	for (int page = 0; page<OLED_PAGES; ++page){
		for (int seg = 0; seg<OLED_WIDTH; ++seg){
     9c2:	2f 5f       	subi	r18, 0xFF	; 255
     9c4:	3f 4f       	sbci	r19, 0xFF	; 255
     9c6:	20 38       	cpi	r18, 0x80	; 128
     9c8:	31 05       	cpc	r19, r1
     9ca:	89 f7       	brne	.-30     	; 0x9ae <oled_fill+0x4e>
     9cc:	60 58       	subi	r22, 0x80	; 128
     9ce:	7f 4f       	sbci	r23, 0xFF	; 255
// *** DRAWING RELATED ***
void oled_fill(uint8_t val){
	write_c(SET_COL_ADR);  write_c(0x00); write_c(OLED_WIDTH-1);
	write_c(SET_PAGE_ADR); write_c(0x00); write_c(OLED_PAGES-1);
	
	for (int page = 0; page<OLED_PAGES; ++page){
     9d0:	61 15       	cp	r22, r1
     9d2:	24 e0       	ldi	r18, 0x04	; 4
     9d4:	72 07       	cpc	r23, r18
     9d6:	19 f0       	breq	.+6      	; 0x9de <oled_fill+0x7e>
	oled_update();
	return 0;
}

// *** DRAWING RELATED ***
void oled_fill(uint8_t val){
     9d8:	2a 2f       	mov	r18, r26
     9da:	39 2f       	mov	r19, r25
     9dc:	e8 cf       	rjmp	.-48     	; 0x9ae <oled_fill+0x4e>
     9de:	08 95       	ret

000009e0 <oled_update>:
     9e0:	00 c0       	rjmp	.+0      	; 0x9e2 <oled_update+0x2>
     9e2:	00 c0       	rjmp	.+0      	; 0x9e4 <oled_update+0x4>
     9e4:	00 00       	nop
	
}

void write_c(uint8_t cmd){
	_delay_us(1);
	*((uint8_t *)OLED_C_ADR) = cmd;
     9e6:	81 e2       	ldi	r24, 0x21	; 33
     9e8:	80 93 00 10 	sts	0x1000, r24
     9ec:	00 c0       	rjmp	.+0      	; 0x9ee <oled_update+0xe>
     9ee:	00 c0       	rjmp	.+0      	; 0x9f0 <oled_update+0x10>
     9f0:	00 00       	nop
     9f2:	10 92 00 10 	sts	0x1000, r1
     9f6:	00 c0       	rjmp	.+0      	; 0x9f8 <oled_update+0x18>
     9f8:	00 c0       	rjmp	.+0      	; 0x9fa <oled_update+0x1a>
     9fa:	00 00       	nop
     9fc:	8f e7       	ldi	r24, 0x7F	; 127
     9fe:	80 93 00 10 	sts	0x1000, r24
     a02:	00 c0       	rjmp	.+0      	; 0xa04 <oled_update+0x24>
     a04:	00 c0       	rjmp	.+0      	; 0xa06 <oled_update+0x26>
     a06:	00 00       	nop
     a08:	82 e2       	ldi	r24, 0x22	; 34
     a0a:	80 93 00 10 	sts	0x1000, r24
     a0e:	00 c0       	rjmp	.+0      	; 0xa10 <oled_update+0x30>
     a10:	00 c0       	rjmp	.+0      	; 0xa12 <oled_update+0x32>
     a12:	00 00       	nop
     a14:	10 92 00 10 	sts	0x1000, r1
     a18:	00 c0       	rjmp	.+0      	; 0xa1a <oled_update+0x3a>
     a1a:	00 c0       	rjmp	.+0      	; 0xa1c <oled_update+0x3c>
     a1c:	00 00       	nop
     a1e:	87 e0       	ldi	r24, 0x07	; 7
     a20:	80 93 00 10 	sts	0x1000, r24
     a24:	00 c0       	rjmp	.+0      	; 0xa26 <oled_update+0x46>
     a26:	00 c0       	rjmp	.+0      	; 0xa28 <oled_update+0x48>
     a28:	00 00       	nop
     a2a:	10 92 00 10 	sts	0x1000, r1
     a2e:	00 c0       	rjmp	.+0      	; 0xa30 <oled_update+0x50>
     a30:	00 c0       	rjmp	.+0      	; 0xa32 <oled_update+0x52>
     a32:	00 00       	nop
     a34:	80 e1       	ldi	r24, 0x10	; 16
     a36:	80 93 00 10 	sts	0x1000, r24
     a3a:	40 e0       	ldi	r20, 0x00	; 0
     a3c:	50 e0       	ldi	r21, 0x00	; 0
		}
	}
}

//////////////////////////////////////////////////////////////////////////
void oled_update(){
     a3e:	70 e0       	ldi	r23, 0x00	; 0
     a40:	60 e0       	ldi	r22, 0x00	; 0
	*((uint8_t *)OLED_C_ADR) = cmd;
}

void write_d(uint8_t data){
	_delay_us(1); // delay increased to 1000 to make debug easier, works without any delay
	*((uint8_t *)OLED_D_ADR) = data;
     a42:	a1 e0       	ldi	r26, 0x01	; 1
     a44:	b0 e1       	ldi	r27, 0x10	; 16
     a46:	18 c0       	rjmp	.+48     	; 0xa78 <oled_update+0x98>
     a48:	9c 01       	movw	r18, r24
     a4a:	24 0f       	add	r18, r20
     a4c:	35 1f       	adc	r19, r21
	write_c(SET_LOW_COL_ADR  | 0x00);
	write_c(SET_HIGH_COL_ADR | 0x00);
	
	for (int page = 0; page<OLED_PAGES; ++page){
		for (int seg = 0; seg<OLED_WIDTH; ++seg){
			write_d(buffer[page*OLED_WIDTH + seg]);
     a4e:	e0 91 17 01 	lds	r30, 0x0117
     a52:	f0 91 18 01 	lds	r31, 0x0118
     a56:	e2 0f       	add	r30, r18
     a58:	f3 1f       	adc	r31, r19
     a5a:	20 81       	ld	r18, Z
     a5c:	00 c0       	rjmp	.+0      	; 0xa5e <oled_update+0x7e>
     a5e:	00 c0       	rjmp	.+0      	; 0xa60 <oled_update+0x80>
     a60:	00 00       	nop
	*((uint8_t *)OLED_C_ADR) = cmd;
}

void write_d(uint8_t data){
	_delay_us(1); // delay increased to 1000 to make debug easier, works without any delay
	*((uint8_t *)OLED_D_ADR) = data;
     a62:	2c 93       	st	X, r18
	
	write_c(SET_LOW_COL_ADR  | 0x00);
	write_c(SET_HIGH_COL_ADR | 0x00);
	
	for (int page = 0; page<OLED_PAGES; ++page){
		for (int seg = 0; seg<OLED_WIDTH; ++seg){
     a64:	01 96       	adiw	r24, 0x01	; 1
     a66:	80 38       	cpi	r24, 0x80	; 128
     a68:	91 05       	cpc	r25, r1
     a6a:	71 f7       	brne	.-36     	; 0xa48 <oled_update+0x68>
     a6c:	40 58       	subi	r20, 0x80	; 128
     a6e:	5f 4f       	sbci	r21, 0xFF	; 255
	write_c(SET_PAGE_ADR);write_c(0x00); write_c(OLED_PAGES-1);
	
	write_c(SET_LOW_COL_ADR  | 0x00);
	write_c(SET_HIGH_COL_ADR | 0x00);
	
	for (int page = 0; page<OLED_PAGES; ++page){
     a70:	41 15       	cp	r20, r1
     a72:	84 e0       	ldi	r24, 0x04	; 4
     a74:	58 07       	cpc	r21, r24
     a76:	19 f0       	breq	.+6      	; 0xa7e <oled_update+0x9e>
		}
	}
}

//////////////////////////////////////////////////////////////////////////
void oled_update(){
     a78:	87 2f       	mov	r24, r23
     a7a:	96 2f       	mov	r25, r22
     a7c:	e5 cf       	rjmp	.-54     	; 0xa48 <oled_update+0x68>
     a7e:	08 95       	ret

00000a80 <__vector_17>:
uint8_t xpos = 0;
uint8_t ypos = 0;

FILE oled_out = FDEV_SETUP_STREAM(oled_putchar, NULL, _FDEV_SETUP_WRITE);

ISR(TIMER0_OVF_vect){
     a80:	1f 92       	push	r1
     a82:	0f 92       	push	r0
     a84:	0f b6       	in	r0, 0x3f	; 63
     a86:	0f 92       	push	r0
     a88:	11 24       	eor	r1, r1
     a8a:	2f 93       	push	r18
     a8c:	3f 93       	push	r19
     a8e:	4f 93       	push	r20
     a90:	5f 93       	push	r21
     a92:	6f 93       	push	r22
     a94:	7f 93       	push	r23
     a96:	8f 93       	push	r24
     a98:	9f 93       	push	r25
     a9a:	af 93       	push	r26
     a9c:	bf 93       	push	r27
     a9e:	ef 93       	push	r30
     aa0:	ff 93       	push	r31
	oled_update();
     aa2:	0e 94 f0 04 	call	0x9e0	; 0x9e0 <oled_update>
}
     aa6:	ff 91       	pop	r31
     aa8:	ef 91       	pop	r30
     aaa:	bf 91       	pop	r27
     aac:	af 91       	pop	r26
     aae:	9f 91       	pop	r25
     ab0:	8f 91       	pop	r24
     ab2:	7f 91       	pop	r23
     ab4:	6f 91       	pop	r22
     ab6:	5f 91       	pop	r21
     ab8:	4f 91       	pop	r20
     aba:	3f 91       	pop	r19
     abc:	2f 91       	pop	r18
     abe:	0f 90       	pop	r0
     ac0:	0f be       	out	0x3f, r0	; 63
     ac2:	0f 90       	pop	r0
     ac4:	1f 90       	pop	r1
     ac6:	18 95       	reti

00000ac8 <oled_reset>:
	sei();
	
}

void oled_reset(){
	oled_init();
     ac8:	0e 94 95 03 	call	0x72a	; 0x72a <oled_init>
	oled_fill(0);
     acc:	80 e0       	ldi	r24, 0x00	; 0
     ace:	0e 94 b0 04 	call	0x960	; 0x960 <oled_fill>
	oled_home();
     ad2:	0e 94 1a 04 	call	0x834	; 0x834 <oled_home>
	oled_update();
     ad6:	0e 94 f0 04 	call	0x9e0	; 0x9e0 <oled_update>
     ada:	08 95       	ret

00000adc <oled_putchar>:
	}
	oled_update();	
}

int oled_putchar(char chr){
	oled_buffchar(chr);
     adc:	0e 94 49 04 	call	0x892	; 0x892 <oled_buffchar>
	oled_update();
     ae0:	0e 94 f0 04 	call	0x9e0	; 0x9e0 <oled_update>
	return 0;
}
     ae4:	80 e0       	ldi	r24, 0x00	; 0
     ae6:	90 e0       	ldi	r25, 0x00	; 0
     ae8:	08 95       	ret

00000aea <uart_send>:
	UCSR0C &= ~(1 << USBS0);
	
}

int uart_send(unsigned char msg){
	while (!(UCSR0A & (1 << UDRE0)));
     aea:	5d 9b       	sbis	0x0b, 5	; 11
     aec:	fe cf       	rjmp	.-4      	; 0xaea <uart_send>
	UDR0 = msg;
     aee:	8c b9       	out	0x0c, r24	; 12
	return 0;
}
     af0:	80 e0       	ldi	r24, 0x00	; 0
     af2:	90 e0       	ldi	r25, 0x00	; 0
     af4:	08 95       	ret

00000af6 <uart_recv>:

unsigned char uart_recv(){
	char returnval = 0;
	if(recvhead != recvtail)
     af6:	20 91 ad 02 	lds	r18, 0x02AD
     afa:	30 91 ae 02 	lds	r19, 0x02AE
     afe:	80 91 ab 02 	lds	r24, 0x02AB
     b02:	90 91 ac 02 	lds	r25, 0x02AC
     b06:	28 17       	cp	r18, r24
     b08:	39 07       	cpc	r19, r25
     b0a:	11 f1       	breq	.+68     	; 0xb50 <uart_recv+0x5a>
	{
		returnval = recv_buffer[recvtail++];
     b0c:	80 91 ab 02 	lds	r24, 0x02AB
     b10:	90 91 ac 02 	lds	r25, 0x02AC
     b14:	9c 01       	movw	r18, r24
     b16:	2f 5f       	subi	r18, 0xFF	; 255
     b18:	3f 4f       	sbci	r19, 0xFF	; 255
     b1a:	30 93 ac 02 	sts	0x02AC, r19
     b1e:	20 93 ab 02 	sts	0x02AB, r18
     b22:	fc 01       	movw	r30, r24
     b24:	ed 5c       	subi	r30, 0xCD	; 205
     b26:	fc 4f       	sbci	r31, 0xFC	; 252
     b28:	80 81       	ld	r24, Z
		recvtail = recvtail%BUFFER_MAX;
     b2a:	20 91 ab 02 	lds	r18, 0x02AB
     b2e:	30 91 ac 02 	lds	r19, 0x02AC
     b32:	2f 77       	andi	r18, 0x7F	; 127
     b34:	30 78       	andi	r19, 0x80	; 128
     b36:	33 23       	and	r19, r19
     b38:	34 f4       	brge	.+12     	; 0xb46 <uart_recv+0x50>
     b3a:	21 50       	subi	r18, 0x01	; 1
     b3c:	31 09       	sbc	r19, r1
     b3e:	20 68       	ori	r18, 0x80	; 128
     b40:	3f 6f       	ori	r19, 0xFF	; 255
     b42:	2f 5f       	subi	r18, 0xFF	; 255
     b44:	3f 4f       	sbci	r19, 0xFF	; 255
     b46:	30 93 ac 02 	sts	0x02AC, r19
     b4a:	20 93 ab 02 	sts	0x02AB, r18
     b4e:	08 95       	ret
	UDR0 = msg;
	return 0;
}

unsigned char uart_recv(){
	char returnval = 0;
     b50:	80 e0       	ldi	r24, 0x00	; 0
	{
		returnval = recv_buffer[recvtail++];
		recvtail = recvtail%BUFFER_MAX;
	}
	return returnval;
}
     b52:	08 95       	ret

00000b54 <__vector_19>:
volatile int sendhead = 0;
volatile int sendtail = 0;
volatile int recvhead = 0;
volatile int recvtail = 0;

ISR(USART0_RXC_vect){
     b54:	1f 92       	push	r1
     b56:	0f 92       	push	r0
     b58:	0f b6       	in	r0, 0x3f	; 63
     b5a:	0f 92       	push	r0
     b5c:	11 24       	eor	r1, r1
     b5e:	2f 93       	push	r18
     b60:	3f 93       	push	r19
     b62:	4f 93       	push	r20
     b64:	8f 93       	push	r24
     b66:	9f 93       	push	r25
     b68:	ef 93       	push	r30
     b6a:	ff 93       	push	r31
	cli();
     b6c:	f8 94       	cli
	char input = UDR0;
     b6e:	4c b1       	in	r20, 0x0c	; 12
	if((recvhead+1)%BUFFER_MAX != recvtail){			// Sjekk at bufferen ikke er full
     b70:	80 91 ad 02 	lds	r24, 0x02AD
     b74:	90 91 ae 02 	lds	r25, 0x02AE
     b78:	20 91 ab 02 	lds	r18, 0x02AB
     b7c:	30 91 ac 02 	lds	r19, 0x02AC
     b80:	01 96       	adiw	r24, 0x01	; 1
     b82:	8f 77       	andi	r24, 0x7F	; 127
     b84:	90 78       	andi	r25, 0x80	; 128
     b86:	99 23       	and	r25, r25
     b88:	24 f4       	brge	.+8      	; 0xb92 <__vector_19+0x3e>
     b8a:	01 97       	sbiw	r24, 0x01	; 1
     b8c:	80 68       	ori	r24, 0x80	; 128
     b8e:	9f 6f       	ori	r25, 0xFF	; 255
     b90:	01 96       	adiw	r24, 0x01	; 1
     b92:	82 17       	cp	r24, r18
     b94:	93 07       	cpc	r25, r19
     b96:	f9 f0       	breq	.+62     	; 0xbd6 <__vector_19+0x82>
		recv_buffer[recvhead++] = input;				// If so, legg inn byte
     b98:	80 91 ad 02 	lds	r24, 0x02AD
     b9c:	90 91 ae 02 	lds	r25, 0x02AE
     ba0:	9c 01       	movw	r18, r24
     ba2:	2f 5f       	subi	r18, 0xFF	; 255
     ba4:	3f 4f       	sbci	r19, 0xFF	; 255
     ba6:	30 93 ae 02 	sts	0x02AE, r19
     baa:	20 93 ad 02 	sts	0x02AD, r18
     bae:	fc 01       	movw	r30, r24
     bb0:	ed 5c       	subi	r30, 0xCD	; 205
     bb2:	fc 4f       	sbci	r31, 0xFC	; 252
     bb4:	40 83       	st	Z, r20
		recvhead = recvhead%BUFFER_MAX;
     bb6:	80 91 ad 02 	lds	r24, 0x02AD
     bba:	90 91 ae 02 	lds	r25, 0x02AE
     bbe:	8f 77       	andi	r24, 0x7F	; 127
     bc0:	90 78       	andi	r25, 0x80	; 128
     bc2:	99 23       	and	r25, r25
     bc4:	24 f4       	brge	.+8      	; 0xbce <__vector_19+0x7a>
     bc6:	01 97       	sbiw	r24, 0x01	; 1
     bc8:	80 68       	ori	r24, 0x80	; 128
     bca:	9f 6f       	ori	r25, 0xFF	; 255
     bcc:	01 96       	adiw	r24, 0x01	; 1
     bce:	90 93 ae 02 	sts	0x02AE, r25
     bd2:	80 93 ad 02 	sts	0x02AD, r24
	}
	sei();
     bd6:	78 94       	sei
}
     bd8:	ff 91       	pop	r31
     bda:	ef 91       	pop	r30
     bdc:	9f 91       	pop	r25
     bde:	8f 91       	pop	r24
     be0:	4f 91       	pop	r20
     be2:	3f 91       	pop	r19
     be4:	2f 91       	pop	r18
     be6:	0f 90       	pop	r0
     be8:	0f be       	out	0x3f, r0	; 63
     bea:	0f 90       	pop	r0
     bec:	1f 90       	pop	r1
     bee:	18 95       	reti

00000bf0 <__vector_23>:

ISR(USART0_TXC_vect){
     bf0:	1f 92       	push	r1
     bf2:	0f 92       	push	r0
     bf4:	0f b6       	in	r0, 0x3f	; 63
     bf6:	0f 92       	push	r0
     bf8:	11 24       	eor	r1, r1
	
}
     bfa:	0f 90       	pop	r0
     bfc:	0f be       	out	0x3f, r0	; 63
     bfe:	0f 90       	pop	r0
     c00:	1f 90       	pop	r1
     c02:	18 95       	reti

00000c04 <uart_init>:

void uart_init(){
	// set baud rate
	int timerval = (F_CPU/(16*BAUD) - 1);
	UBRR0L = timerval&0xFF;
     c04:	8f e1       	ldi	r24, 0x1F	; 31
     c06:	89 b9       	out	0x09, r24	; 9
	UBRR0H = (timerval>>8)&0x0F;
     c08:	10 bc       	out	0x20, r1	; 32
	
	// enable interupts on Rx & Tx, and enable Rx & Tx
	UCSR0B |= (1 << RXCIE0) | (1 << TXCIE0) | (1 << RXEN0) | (1 << TXEN0);
     c0a:	8a b1       	in	r24, 0x0a	; 10
     c0c:	88 6d       	ori	r24, 0xD8	; 216
     c0e:	8a b9       	out	0x0a, r24	; 10
	
	// enable async mode
	UCSR0C &= ~(1 << UMSEL0);
     c10:	80 b5       	in	r24, 0x20	; 32
     c12:	8f 7b       	andi	r24, 0xBF	; 191
     c14:	80 bd       	out	0x20, r24	; 32
	
	// parity disable
	UCSR0C &= ~((1 << UPM00) | (1 << UPM10));
     c16:	80 b5       	in	r24, 0x20	; 32
     c18:	8f 7e       	andi	r24, 0xEF	; 239
     c1a:	80 bd       	out	0x20, r24	; 32
	
	// stop bit to 1
	UCSR0C &= ~(1 << USBS0);
     c1c:	80 b5       	in	r24, 0x20	; 32
     c1e:	87 7f       	andi	r24, 0xF7	; 247
     c20:	80 bd       	out	0x20, r24	; 32
     c22:	08 95       	ret

00000c24 <malloc>:
     c24:	cf 93       	push	r28
     c26:	df 93       	push	r29
     c28:	82 30       	cpi	r24, 0x02	; 2
     c2a:	91 05       	cpc	r25, r1
     c2c:	10 f4       	brcc	.+4      	; 0xc32 <malloc+0xe>
     c2e:	82 e0       	ldi	r24, 0x02	; 2
     c30:	90 e0       	ldi	r25, 0x00	; 0
     c32:	e0 91 b5 03 	lds	r30, 0x03B5
     c36:	f0 91 b6 03 	lds	r31, 0x03B6
     c3a:	20 e0       	ldi	r18, 0x00	; 0
     c3c:	30 e0       	ldi	r19, 0x00	; 0
     c3e:	a0 e0       	ldi	r26, 0x00	; 0
     c40:	b0 e0       	ldi	r27, 0x00	; 0
     c42:	30 97       	sbiw	r30, 0x00	; 0
     c44:	39 f1       	breq	.+78     	; 0xc94 <malloc+0x70>
     c46:	40 81       	ld	r20, Z
     c48:	51 81       	ldd	r21, Z+1	; 0x01
     c4a:	48 17       	cp	r20, r24
     c4c:	59 07       	cpc	r21, r25
     c4e:	b8 f0       	brcs	.+46     	; 0xc7e <malloc+0x5a>
     c50:	48 17       	cp	r20, r24
     c52:	59 07       	cpc	r21, r25
     c54:	71 f4       	brne	.+28     	; 0xc72 <malloc+0x4e>
     c56:	82 81       	ldd	r24, Z+2	; 0x02
     c58:	93 81       	ldd	r25, Z+3	; 0x03
     c5a:	10 97       	sbiw	r26, 0x00	; 0
     c5c:	29 f0       	breq	.+10     	; 0xc68 <malloc+0x44>
     c5e:	13 96       	adiw	r26, 0x03	; 3
     c60:	9c 93       	st	X, r25
     c62:	8e 93       	st	-X, r24
     c64:	12 97       	sbiw	r26, 0x02	; 2
     c66:	2c c0       	rjmp	.+88     	; 0xcc0 <malloc+0x9c>
     c68:	90 93 b6 03 	sts	0x03B6, r25
     c6c:	80 93 b5 03 	sts	0x03B5, r24
     c70:	27 c0       	rjmp	.+78     	; 0xcc0 <malloc+0x9c>
     c72:	21 15       	cp	r18, r1
     c74:	31 05       	cpc	r19, r1
     c76:	31 f0       	breq	.+12     	; 0xc84 <malloc+0x60>
     c78:	42 17       	cp	r20, r18
     c7a:	53 07       	cpc	r21, r19
     c7c:	18 f0       	brcs	.+6      	; 0xc84 <malloc+0x60>
     c7e:	a9 01       	movw	r20, r18
     c80:	db 01       	movw	r26, r22
     c82:	01 c0       	rjmp	.+2      	; 0xc86 <malloc+0x62>
     c84:	ef 01       	movw	r28, r30
     c86:	9a 01       	movw	r18, r20
     c88:	bd 01       	movw	r22, r26
     c8a:	df 01       	movw	r26, r30
     c8c:	02 80       	ldd	r0, Z+2	; 0x02
     c8e:	f3 81       	ldd	r31, Z+3	; 0x03
     c90:	e0 2d       	mov	r30, r0
     c92:	d7 cf       	rjmp	.-82     	; 0xc42 <malloc+0x1e>
     c94:	21 15       	cp	r18, r1
     c96:	31 05       	cpc	r19, r1
     c98:	f9 f0       	breq	.+62     	; 0xcd8 <malloc+0xb4>
     c9a:	28 1b       	sub	r18, r24
     c9c:	39 0b       	sbc	r19, r25
     c9e:	24 30       	cpi	r18, 0x04	; 4
     ca0:	31 05       	cpc	r19, r1
     ca2:	80 f4       	brcc	.+32     	; 0xcc4 <malloc+0xa0>
     ca4:	8a 81       	ldd	r24, Y+2	; 0x02
     ca6:	9b 81       	ldd	r25, Y+3	; 0x03
     ca8:	61 15       	cp	r22, r1
     caa:	71 05       	cpc	r23, r1
     cac:	21 f0       	breq	.+8      	; 0xcb6 <malloc+0x92>
     cae:	fb 01       	movw	r30, r22
     cb0:	93 83       	std	Z+3, r25	; 0x03
     cb2:	82 83       	std	Z+2, r24	; 0x02
     cb4:	04 c0       	rjmp	.+8      	; 0xcbe <malloc+0x9a>
     cb6:	90 93 b6 03 	sts	0x03B6, r25
     cba:	80 93 b5 03 	sts	0x03B5, r24
     cbe:	fe 01       	movw	r30, r28
     cc0:	32 96       	adiw	r30, 0x02	; 2
     cc2:	44 c0       	rjmp	.+136    	; 0xd4c <malloc+0x128>
     cc4:	fe 01       	movw	r30, r28
     cc6:	e2 0f       	add	r30, r18
     cc8:	f3 1f       	adc	r31, r19
     cca:	81 93       	st	Z+, r24
     ccc:	91 93       	st	Z+, r25
     cce:	22 50       	subi	r18, 0x02	; 2
     cd0:	31 09       	sbc	r19, r1
     cd2:	39 83       	std	Y+1, r19	; 0x01
     cd4:	28 83       	st	Y, r18
     cd6:	3a c0       	rjmp	.+116    	; 0xd4c <malloc+0x128>
     cd8:	20 91 b3 03 	lds	r18, 0x03B3
     cdc:	30 91 b4 03 	lds	r19, 0x03B4
     ce0:	23 2b       	or	r18, r19
     ce2:	41 f4       	brne	.+16     	; 0xcf4 <malloc+0xd0>
     ce4:	20 91 02 01 	lds	r18, 0x0102
     ce8:	30 91 03 01 	lds	r19, 0x0103
     cec:	30 93 b4 03 	sts	0x03B4, r19
     cf0:	20 93 b3 03 	sts	0x03B3, r18
     cf4:	20 91 00 01 	lds	r18, 0x0100
     cf8:	30 91 01 01 	lds	r19, 0x0101
     cfc:	21 15       	cp	r18, r1
     cfe:	31 05       	cpc	r19, r1
     d00:	41 f4       	brne	.+16     	; 0xd12 <malloc+0xee>
     d02:	2d b7       	in	r18, 0x3d	; 61
     d04:	3e b7       	in	r19, 0x3e	; 62
     d06:	40 91 04 01 	lds	r20, 0x0104
     d0a:	50 91 05 01 	lds	r21, 0x0105
     d0e:	24 1b       	sub	r18, r20
     d10:	35 0b       	sbc	r19, r21
     d12:	e0 91 b3 03 	lds	r30, 0x03B3
     d16:	f0 91 b4 03 	lds	r31, 0x03B4
     d1a:	e2 17       	cp	r30, r18
     d1c:	f3 07       	cpc	r31, r19
     d1e:	a0 f4       	brcc	.+40     	; 0xd48 <malloc+0x124>
     d20:	2e 1b       	sub	r18, r30
     d22:	3f 0b       	sbc	r19, r31
     d24:	28 17       	cp	r18, r24
     d26:	39 07       	cpc	r19, r25
     d28:	78 f0       	brcs	.+30     	; 0xd48 <malloc+0x124>
     d2a:	ac 01       	movw	r20, r24
     d2c:	4e 5f       	subi	r20, 0xFE	; 254
     d2e:	5f 4f       	sbci	r21, 0xFF	; 255
     d30:	24 17       	cp	r18, r20
     d32:	35 07       	cpc	r19, r21
     d34:	48 f0       	brcs	.+18     	; 0xd48 <malloc+0x124>
     d36:	4e 0f       	add	r20, r30
     d38:	5f 1f       	adc	r21, r31
     d3a:	50 93 b4 03 	sts	0x03B4, r21
     d3e:	40 93 b3 03 	sts	0x03B3, r20
     d42:	81 93       	st	Z+, r24
     d44:	91 93       	st	Z+, r25
     d46:	02 c0       	rjmp	.+4      	; 0xd4c <malloc+0x128>
     d48:	e0 e0       	ldi	r30, 0x00	; 0
     d4a:	f0 e0       	ldi	r31, 0x00	; 0
     d4c:	cf 01       	movw	r24, r30
     d4e:	df 91       	pop	r29
     d50:	cf 91       	pop	r28
     d52:	08 95       	ret

00000d54 <free>:
     d54:	cf 93       	push	r28
     d56:	df 93       	push	r29
     d58:	00 97       	sbiw	r24, 0x00	; 0
     d5a:	09 f4       	brne	.+2      	; 0xd5e <free+0xa>
     d5c:	87 c0       	rjmp	.+270    	; 0xe6c <free+0x118>
     d5e:	fc 01       	movw	r30, r24
     d60:	32 97       	sbiw	r30, 0x02	; 2
     d62:	13 82       	std	Z+3, r1	; 0x03
     d64:	12 82       	std	Z+2, r1	; 0x02
     d66:	c0 91 b5 03 	lds	r28, 0x03B5
     d6a:	d0 91 b6 03 	lds	r29, 0x03B6
     d6e:	20 97       	sbiw	r28, 0x00	; 0
     d70:	81 f4       	brne	.+32     	; 0xd92 <free+0x3e>
     d72:	20 81       	ld	r18, Z
     d74:	31 81       	ldd	r19, Z+1	; 0x01
     d76:	28 0f       	add	r18, r24
     d78:	39 1f       	adc	r19, r25
     d7a:	80 91 b3 03 	lds	r24, 0x03B3
     d7e:	90 91 b4 03 	lds	r25, 0x03B4
     d82:	82 17       	cp	r24, r18
     d84:	93 07       	cpc	r25, r19
     d86:	79 f5       	brne	.+94     	; 0xde6 <free+0x92>
     d88:	f0 93 b4 03 	sts	0x03B4, r31
     d8c:	e0 93 b3 03 	sts	0x03B3, r30
     d90:	6d c0       	rjmp	.+218    	; 0xe6c <free+0x118>
     d92:	de 01       	movw	r26, r28
     d94:	20 e0       	ldi	r18, 0x00	; 0
     d96:	30 e0       	ldi	r19, 0x00	; 0
     d98:	ae 17       	cp	r26, r30
     d9a:	bf 07       	cpc	r27, r31
     d9c:	50 f4       	brcc	.+20     	; 0xdb2 <free+0x5e>
     d9e:	12 96       	adiw	r26, 0x02	; 2
     da0:	4d 91       	ld	r20, X+
     da2:	5c 91       	ld	r21, X
     da4:	13 97       	sbiw	r26, 0x03	; 3
     da6:	9d 01       	movw	r18, r26
     da8:	41 15       	cp	r20, r1
     daa:	51 05       	cpc	r21, r1
     dac:	09 f1       	breq	.+66     	; 0xdf0 <free+0x9c>
     dae:	da 01       	movw	r26, r20
     db0:	f3 cf       	rjmp	.-26     	; 0xd98 <free+0x44>
     db2:	b3 83       	std	Z+3, r27	; 0x03
     db4:	a2 83       	std	Z+2, r26	; 0x02
     db6:	40 81       	ld	r20, Z
     db8:	51 81       	ldd	r21, Z+1	; 0x01
     dba:	84 0f       	add	r24, r20
     dbc:	95 1f       	adc	r25, r21
     dbe:	8a 17       	cp	r24, r26
     dc0:	9b 07       	cpc	r25, r27
     dc2:	71 f4       	brne	.+28     	; 0xde0 <free+0x8c>
     dc4:	8d 91       	ld	r24, X+
     dc6:	9c 91       	ld	r25, X
     dc8:	11 97       	sbiw	r26, 0x01	; 1
     dca:	84 0f       	add	r24, r20
     dcc:	95 1f       	adc	r25, r21
     dce:	02 96       	adiw	r24, 0x02	; 2
     dd0:	91 83       	std	Z+1, r25	; 0x01
     dd2:	80 83       	st	Z, r24
     dd4:	12 96       	adiw	r26, 0x02	; 2
     dd6:	8d 91       	ld	r24, X+
     dd8:	9c 91       	ld	r25, X
     dda:	13 97       	sbiw	r26, 0x03	; 3
     ddc:	93 83       	std	Z+3, r25	; 0x03
     dde:	82 83       	std	Z+2, r24	; 0x02
     de0:	21 15       	cp	r18, r1
     de2:	31 05       	cpc	r19, r1
     de4:	29 f4       	brne	.+10     	; 0xdf0 <free+0x9c>
     de6:	f0 93 b6 03 	sts	0x03B6, r31
     dea:	e0 93 b5 03 	sts	0x03B5, r30
     dee:	3e c0       	rjmp	.+124    	; 0xe6c <free+0x118>
     df0:	d9 01       	movw	r26, r18
     df2:	13 96       	adiw	r26, 0x03	; 3
     df4:	fc 93       	st	X, r31
     df6:	ee 93       	st	-X, r30
     df8:	12 97       	sbiw	r26, 0x02	; 2
     dfa:	4d 91       	ld	r20, X+
     dfc:	5d 91       	ld	r21, X+
     dfe:	a4 0f       	add	r26, r20
     e00:	b5 1f       	adc	r27, r21
     e02:	ea 17       	cp	r30, r26
     e04:	fb 07       	cpc	r31, r27
     e06:	79 f4       	brne	.+30     	; 0xe26 <free+0xd2>
     e08:	80 81       	ld	r24, Z
     e0a:	91 81       	ldd	r25, Z+1	; 0x01
     e0c:	84 0f       	add	r24, r20
     e0e:	95 1f       	adc	r25, r21
     e10:	02 96       	adiw	r24, 0x02	; 2
     e12:	d9 01       	movw	r26, r18
     e14:	11 96       	adiw	r26, 0x01	; 1
     e16:	9c 93       	st	X, r25
     e18:	8e 93       	st	-X, r24
     e1a:	82 81       	ldd	r24, Z+2	; 0x02
     e1c:	93 81       	ldd	r25, Z+3	; 0x03
     e1e:	13 96       	adiw	r26, 0x03	; 3
     e20:	9c 93       	st	X, r25
     e22:	8e 93       	st	-X, r24
     e24:	12 97       	sbiw	r26, 0x02	; 2
     e26:	e0 e0       	ldi	r30, 0x00	; 0
     e28:	f0 e0       	ldi	r31, 0x00	; 0
     e2a:	8a 81       	ldd	r24, Y+2	; 0x02
     e2c:	9b 81       	ldd	r25, Y+3	; 0x03
     e2e:	00 97       	sbiw	r24, 0x00	; 0
     e30:	19 f0       	breq	.+6      	; 0xe38 <free+0xe4>
     e32:	fe 01       	movw	r30, r28
     e34:	ec 01       	movw	r28, r24
     e36:	f9 cf       	rjmp	.-14     	; 0xe2a <free+0xd6>
     e38:	ce 01       	movw	r24, r28
     e3a:	02 96       	adiw	r24, 0x02	; 2
     e3c:	28 81       	ld	r18, Y
     e3e:	39 81       	ldd	r19, Y+1	; 0x01
     e40:	82 0f       	add	r24, r18
     e42:	93 1f       	adc	r25, r19
     e44:	20 91 b3 03 	lds	r18, 0x03B3
     e48:	30 91 b4 03 	lds	r19, 0x03B4
     e4c:	28 17       	cp	r18, r24
     e4e:	39 07       	cpc	r19, r25
     e50:	69 f4       	brne	.+26     	; 0xe6c <free+0x118>
     e52:	30 97       	sbiw	r30, 0x00	; 0
     e54:	29 f4       	brne	.+10     	; 0xe60 <free+0x10c>
     e56:	10 92 b6 03 	sts	0x03B6, r1
     e5a:	10 92 b5 03 	sts	0x03B5, r1
     e5e:	02 c0       	rjmp	.+4      	; 0xe64 <free+0x110>
     e60:	13 82       	std	Z+3, r1	; 0x03
     e62:	12 82       	std	Z+2, r1	; 0x02
     e64:	d0 93 b4 03 	sts	0x03B4, r29
     e68:	c0 93 b3 03 	sts	0x03B3, r28
     e6c:	df 91       	pop	r29
     e6e:	cf 91       	pop	r28
     e70:	08 95       	ret

00000e72 <strncpy>:
     e72:	fb 01       	movw	r30, r22
     e74:	dc 01       	movw	r26, r24
     e76:	41 50       	subi	r20, 0x01	; 1
     e78:	50 40       	sbci	r21, 0x00	; 0
     e7a:	48 f0       	brcs	.+18     	; 0xe8e <strncpy+0x1c>
     e7c:	01 90       	ld	r0, Z+
     e7e:	0d 92       	st	X+, r0
     e80:	00 20       	and	r0, r0
     e82:	c9 f7       	brne	.-14     	; 0xe76 <strncpy+0x4>
     e84:	01 c0       	rjmp	.+2      	; 0xe88 <strncpy+0x16>
     e86:	1d 92       	st	X+, r1
     e88:	41 50       	subi	r20, 0x01	; 1
     e8a:	50 40       	sbci	r21, 0x00	; 0
     e8c:	e0 f7       	brcc	.-8      	; 0xe86 <strncpy+0x14>
     e8e:	08 95       	ret

00000e90 <fprintf>:
     e90:	a0 e0       	ldi	r26, 0x00	; 0
     e92:	b0 e0       	ldi	r27, 0x00	; 0
     e94:	ee e4       	ldi	r30, 0x4E	; 78
     e96:	f7 e0       	ldi	r31, 0x07	; 7
     e98:	0c 94 43 0a 	jmp	0x1486	; 0x1486 <__prologue_saves__+0x20>
     e9c:	ae 01       	movw	r20, r28
     e9e:	47 5f       	subi	r20, 0xF7	; 247
     ea0:	5f 4f       	sbci	r21, 0xFF	; 255
     ea2:	6f 81       	ldd	r22, Y+7	; 0x07
     ea4:	78 85       	ldd	r23, Y+8	; 0x08
     ea6:	8d 81       	ldd	r24, Y+5	; 0x05
     ea8:	9e 81       	ldd	r25, Y+6	; 0x06
     eaa:	0e 94 bb 07 	call	0xf76	; 0xf76 <vfprintf>
     eae:	e2 e0       	ldi	r30, 0x02	; 2
     eb0:	0c 94 5f 0a 	jmp	0x14be	; 0x14be <__epilogue_restores__+0x20>

00000eb4 <fwrite>:
     eb4:	a0 e0       	ldi	r26, 0x00	; 0
     eb6:	b0 e0       	ldi	r27, 0x00	; 0
     eb8:	e0 e6       	ldi	r30, 0x60	; 96
     eba:	f7 e0       	ldi	r31, 0x07	; 7
     ebc:	0c 94 39 0a 	jmp	0x1472	; 0x1472 <__prologue_saves__+0xc>
     ec0:	6b 01       	movw	r12, r22
     ec2:	4a 01       	movw	r8, r20
     ec4:	79 01       	movw	r14, r18
     ec6:	d9 01       	movw	r26, r18
     ec8:	13 96       	adiw	r26, 0x03	; 3
     eca:	2c 91       	ld	r18, X
     ecc:	21 ff       	sbrs	r18, 1
     ece:	1d c0       	rjmp	.+58     	; 0xf0a <fwrite+0x56>
     ed0:	c0 e0       	ldi	r28, 0x00	; 0
     ed2:	d0 e0       	ldi	r29, 0x00	; 0
     ed4:	c8 15       	cp	r28, r8
     ed6:	d9 05       	cpc	r29, r9
     ed8:	d9 f0       	breq	.+54     	; 0xf10 <fwrite+0x5c>
     eda:	8c 01       	movw	r16, r24
     edc:	5c 01       	movw	r10, r24
     ede:	ac 0c       	add	r10, r12
     ee0:	bd 1c       	adc	r11, r13
     ee2:	c8 01       	movw	r24, r16
     ee4:	0a 15       	cp	r16, r10
     ee6:	1b 05       	cpc	r17, r11
     ee8:	71 f0       	breq	.+28     	; 0xf06 <fwrite+0x52>
     eea:	0f 5f       	subi	r16, 0xFF	; 255
     eec:	1f 4f       	sbci	r17, 0xFF	; 255
     eee:	d7 01       	movw	r26, r14
     ef0:	18 96       	adiw	r26, 0x08	; 8
     ef2:	ed 91       	ld	r30, X+
     ef4:	fc 91       	ld	r31, X
     ef6:	19 97       	sbiw	r26, 0x09	; 9
     ef8:	b7 01       	movw	r22, r14
     efa:	dc 01       	movw	r26, r24
     efc:	8c 91       	ld	r24, X
     efe:	09 95       	icall
     f00:	89 2b       	or	r24, r25
     f02:	79 f3       	breq	.-34     	; 0xee2 <fwrite+0x2e>
     f04:	05 c0       	rjmp	.+10     	; 0xf10 <fwrite+0x5c>
     f06:	21 96       	adiw	r28, 0x01	; 1
     f08:	e5 cf       	rjmp	.-54     	; 0xed4 <fwrite+0x20>
     f0a:	80 e0       	ldi	r24, 0x00	; 0
     f0c:	90 e0       	ldi	r25, 0x00	; 0
     f0e:	01 c0       	rjmp	.+2      	; 0xf12 <fwrite+0x5e>
     f10:	ce 01       	movw	r24, r28
     f12:	cd b7       	in	r28, 0x3d	; 61
     f14:	de b7       	in	r29, 0x3e	; 62
     f16:	ec e0       	ldi	r30, 0x0C	; 12
     f18:	0c 94 55 0a 	jmp	0x14aa	; 0x14aa <__epilogue_restores__+0xc>

00000f1c <puts>:
     f1c:	0f 93       	push	r16
     f1e:	1f 93       	push	r17
     f20:	cf 93       	push	r28
     f22:	df 93       	push	r29
     f24:	e0 91 b9 03 	lds	r30, 0x03B9
     f28:	f0 91 ba 03 	lds	r31, 0x03BA
     f2c:	23 81       	ldd	r18, Z+3	; 0x03
     f2e:	21 ff       	sbrs	r18, 1
     f30:	1b c0       	rjmp	.+54     	; 0xf68 <puts+0x4c>
     f32:	ec 01       	movw	r28, r24
     f34:	00 e0       	ldi	r16, 0x00	; 0
     f36:	10 e0       	ldi	r17, 0x00	; 0
     f38:	89 91       	ld	r24, Y+
     f3a:	60 91 b9 03 	lds	r22, 0x03B9
     f3e:	70 91 ba 03 	lds	r23, 0x03BA
     f42:	db 01       	movw	r26, r22
     f44:	18 96       	adiw	r26, 0x08	; 8
     f46:	ed 91       	ld	r30, X+
     f48:	fc 91       	ld	r31, X
     f4a:	19 97       	sbiw	r26, 0x09	; 9
     f4c:	88 23       	and	r24, r24
     f4e:	31 f0       	breq	.+12     	; 0xf5c <puts+0x40>
     f50:	09 95       	icall
     f52:	89 2b       	or	r24, r25
     f54:	89 f3       	breq	.-30     	; 0xf38 <puts+0x1c>
     f56:	0f ef       	ldi	r16, 0xFF	; 255
     f58:	1f ef       	ldi	r17, 0xFF	; 255
     f5a:	ee cf       	rjmp	.-36     	; 0xf38 <puts+0x1c>
     f5c:	8a e0       	ldi	r24, 0x0A	; 10
     f5e:	09 95       	icall
     f60:	89 2b       	or	r24, r25
     f62:	11 f4       	brne	.+4      	; 0xf68 <puts+0x4c>
     f64:	c8 01       	movw	r24, r16
     f66:	02 c0       	rjmp	.+4      	; 0xf6c <puts+0x50>
     f68:	8f ef       	ldi	r24, 0xFF	; 255
     f6a:	9f ef       	ldi	r25, 0xFF	; 255
     f6c:	df 91       	pop	r29
     f6e:	cf 91       	pop	r28
     f70:	1f 91       	pop	r17
     f72:	0f 91       	pop	r16
     f74:	08 95       	ret

00000f76 <vfprintf>:
     f76:	ac e0       	ldi	r26, 0x0C	; 12
     f78:	b0 e0       	ldi	r27, 0x00	; 0
     f7a:	e1 ec       	ldi	r30, 0xC1	; 193
     f7c:	f7 e0       	ldi	r31, 0x07	; 7
     f7e:	0c 94 33 0a 	jmp	0x1466	; 0x1466 <__prologue_saves__>
     f82:	7c 01       	movw	r14, r24
     f84:	6b 01       	movw	r12, r22
     f86:	8a 01       	movw	r16, r20
     f88:	fc 01       	movw	r30, r24
     f8a:	17 82       	std	Z+7, r1	; 0x07
     f8c:	16 82       	std	Z+6, r1	; 0x06
     f8e:	83 81       	ldd	r24, Z+3	; 0x03
     f90:	81 ff       	sbrs	r24, 1
     f92:	bd c1       	rjmp	.+890    	; 0x130e <vfprintf+0x398>
     f94:	ce 01       	movw	r24, r28
     f96:	01 96       	adiw	r24, 0x01	; 1
     f98:	4c 01       	movw	r8, r24
     f9a:	f7 01       	movw	r30, r14
     f9c:	93 81       	ldd	r25, Z+3	; 0x03
     f9e:	f6 01       	movw	r30, r12
     fa0:	93 fd       	sbrc	r25, 3
     fa2:	85 91       	lpm	r24, Z+
     fa4:	93 ff       	sbrs	r25, 3
     fa6:	81 91       	ld	r24, Z+
     fa8:	6f 01       	movw	r12, r30
     faa:	88 23       	and	r24, r24
     fac:	09 f4       	brne	.+2      	; 0xfb0 <vfprintf+0x3a>
     fae:	ab c1       	rjmp	.+854    	; 0x1306 <vfprintf+0x390>
     fb0:	85 32       	cpi	r24, 0x25	; 37
     fb2:	39 f4       	brne	.+14     	; 0xfc2 <vfprintf+0x4c>
     fb4:	93 fd       	sbrc	r25, 3
     fb6:	85 91       	lpm	r24, Z+
     fb8:	93 ff       	sbrs	r25, 3
     fba:	81 91       	ld	r24, Z+
     fbc:	6f 01       	movw	r12, r30
     fbe:	85 32       	cpi	r24, 0x25	; 37
     fc0:	29 f4       	brne	.+10     	; 0xfcc <vfprintf+0x56>
     fc2:	b7 01       	movw	r22, r14
     fc4:	90 e0       	ldi	r25, 0x00	; 0
     fc6:	0e 94 a3 09 	call	0x1346	; 0x1346 <fputc>
     fca:	e7 cf       	rjmp	.-50     	; 0xf9a <vfprintf+0x24>
     fcc:	51 2c       	mov	r5, r1
     fce:	31 2c       	mov	r3, r1
     fd0:	20 e0       	ldi	r18, 0x00	; 0
     fd2:	20 32       	cpi	r18, 0x20	; 32
     fd4:	a0 f4       	brcc	.+40     	; 0xffe <vfprintf+0x88>
     fd6:	8b 32       	cpi	r24, 0x2B	; 43
     fd8:	69 f0       	breq	.+26     	; 0xff4 <vfprintf+0x7e>
     fda:	30 f4       	brcc	.+12     	; 0xfe8 <vfprintf+0x72>
     fdc:	80 32       	cpi	r24, 0x20	; 32
     fde:	59 f0       	breq	.+22     	; 0xff6 <vfprintf+0x80>
     fe0:	83 32       	cpi	r24, 0x23	; 35
     fe2:	69 f4       	brne	.+26     	; 0xffe <vfprintf+0x88>
     fe4:	20 61       	ori	r18, 0x10	; 16
     fe6:	2c c0       	rjmp	.+88     	; 0x1040 <vfprintf+0xca>
     fe8:	8d 32       	cpi	r24, 0x2D	; 45
     fea:	39 f0       	breq	.+14     	; 0xffa <vfprintf+0x84>
     fec:	80 33       	cpi	r24, 0x30	; 48
     fee:	39 f4       	brne	.+14     	; 0xffe <vfprintf+0x88>
     ff0:	21 60       	ori	r18, 0x01	; 1
     ff2:	26 c0       	rjmp	.+76     	; 0x1040 <vfprintf+0xca>
     ff4:	22 60       	ori	r18, 0x02	; 2
     ff6:	24 60       	ori	r18, 0x04	; 4
     ff8:	23 c0       	rjmp	.+70     	; 0x1040 <vfprintf+0xca>
     ffa:	28 60       	ori	r18, 0x08	; 8
     ffc:	21 c0       	rjmp	.+66     	; 0x1040 <vfprintf+0xca>
     ffe:	27 fd       	sbrc	r18, 7
    1000:	27 c0       	rjmp	.+78     	; 0x1050 <vfprintf+0xda>
    1002:	30 ed       	ldi	r19, 0xD0	; 208
    1004:	38 0f       	add	r19, r24
    1006:	3a 30       	cpi	r19, 0x0A	; 10
    1008:	78 f4       	brcc	.+30     	; 0x1028 <vfprintf+0xb2>
    100a:	26 ff       	sbrs	r18, 6
    100c:	06 c0       	rjmp	.+12     	; 0x101a <vfprintf+0xa4>
    100e:	fa e0       	ldi	r31, 0x0A	; 10
    1010:	5f 9e       	mul	r5, r31
    1012:	30 0d       	add	r19, r0
    1014:	11 24       	eor	r1, r1
    1016:	53 2e       	mov	r5, r19
    1018:	13 c0       	rjmp	.+38     	; 0x1040 <vfprintf+0xca>
    101a:	8a e0       	ldi	r24, 0x0A	; 10
    101c:	38 9e       	mul	r3, r24
    101e:	30 0d       	add	r19, r0
    1020:	11 24       	eor	r1, r1
    1022:	33 2e       	mov	r3, r19
    1024:	20 62       	ori	r18, 0x20	; 32
    1026:	0c c0       	rjmp	.+24     	; 0x1040 <vfprintf+0xca>
    1028:	8e 32       	cpi	r24, 0x2E	; 46
    102a:	21 f4       	brne	.+8      	; 0x1034 <vfprintf+0xbe>
    102c:	26 fd       	sbrc	r18, 6
    102e:	6b c1       	rjmp	.+726    	; 0x1306 <vfprintf+0x390>
    1030:	20 64       	ori	r18, 0x40	; 64
    1032:	06 c0       	rjmp	.+12     	; 0x1040 <vfprintf+0xca>
    1034:	8c 36       	cpi	r24, 0x6C	; 108
    1036:	11 f4       	brne	.+4      	; 0x103c <vfprintf+0xc6>
    1038:	20 68       	ori	r18, 0x80	; 128
    103a:	02 c0       	rjmp	.+4      	; 0x1040 <vfprintf+0xca>
    103c:	88 36       	cpi	r24, 0x68	; 104
    103e:	41 f4       	brne	.+16     	; 0x1050 <vfprintf+0xda>
    1040:	f6 01       	movw	r30, r12
    1042:	93 fd       	sbrc	r25, 3
    1044:	85 91       	lpm	r24, Z+
    1046:	93 ff       	sbrs	r25, 3
    1048:	81 91       	ld	r24, Z+
    104a:	6f 01       	movw	r12, r30
    104c:	81 11       	cpse	r24, r1
    104e:	c1 cf       	rjmp	.-126    	; 0xfd2 <vfprintf+0x5c>
    1050:	98 2f       	mov	r25, r24
    1052:	9f 7d       	andi	r25, 0xDF	; 223
    1054:	95 54       	subi	r25, 0x45	; 69
    1056:	93 30       	cpi	r25, 0x03	; 3
    1058:	28 f4       	brcc	.+10     	; 0x1064 <vfprintf+0xee>
    105a:	0c 5f       	subi	r16, 0xFC	; 252
    105c:	1f 4f       	sbci	r17, 0xFF	; 255
    105e:	ff e3       	ldi	r31, 0x3F	; 63
    1060:	f9 83       	std	Y+1, r31	; 0x01
    1062:	0d c0       	rjmp	.+26     	; 0x107e <vfprintf+0x108>
    1064:	83 36       	cpi	r24, 0x63	; 99
    1066:	31 f0       	breq	.+12     	; 0x1074 <vfprintf+0xfe>
    1068:	83 37       	cpi	r24, 0x73	; 115
    106a:	71 f0       	breq	.+28     	; 0x1088 <vfprintf+0x112>
    106c:	83 35       	cpi	r24, 0x53	; 83
    106e:	09 f0       	breq	.+2      	; 0x1072 <vfprintf+0xfc>
    1070:	5b c0       	rjmp	.+182    	; 0x1128 <vfprintf+0x1b2>
    1072:	22 c0       	rjmp	.+68     	; 0x10b8 <vfprintf+0x142>
    1074:	f8 01       	movw	r30, r16
    1076:	80 81       	ld	r24, Z
    1078:	89 83       	std	Y+1, r24	; 0x01
    107a:	0e 5f       	subi	r16, 0xFE	; 254
    107c:	1f 4f       	sbci	r17, 0xFF	; 255
    107e:	44 24       	eor	r4, r4
    1080:	43 94       	inc	r4
    1082:	51 2c       	mov	r5, r1
    1084:	54 01       	movw	r10, r8
    1086:	15 c0       	rjmp	.+42     	; 0x10b2 <vfprintf+0x13c>
    1088:	38 01       	movw	r6, r16
    108a:	f2 e0       	ldi	r31, 0x02	; 2
    108c:	6f 0e       	add	r6, r31
    108e:	71 1c       	adc	r7, r1
    1090:	f8 01       	movw	r30, r16
    1092:	a0 80       	ld	r10, Z
    1094:	b1 80       	ldd	r11, Z+1	; 0x01
    1096:	26 ff       	sbrs	r18, 6
    1098:	03 c0       	rjmp	.+6      	; 0x10a0 <vfprintf+0x12a>
    109a:	65 2d       	mov	r22, r5
    109c:	70 e0       	ldi	r23, 0x00	; 0
    109e:	02 c0       	rjmp	.+4      	; 0x10a4 <vfprintf+0x12e>
    10a0:	6f ef       	ldi	r22, 0xFF	; 255
    10a2:	7f ef       	ldi	r23, 0xFF	; 255
    10a4:	c5 01       	movw	r24, r10
    10a6:	2c 87       	std	Y+12, r18	; 0x0c
    10a8:	0e 94 98 09 	call	0x1330	; 0x1330 <strnlen>
    10ac:	2c 01       	movw	r4, r24
    10ae:	83 01       	movw	r16, r6
    10b0:	2c 85       	ldd	r18, Y+12	; 0x0c
    10b2:	2f 77       	andi	r18, 0x7F	; 127
    10b4:	22 2e       	mov	r2, r18
    10b6:	17 c0       	rjmp	.+46     	; 0x10e6 <vfprintf+0x170>
    10b8:	38 01       	movw	r6, r16
    10ba:	f2 e0       	ldi	r31, 0x02	; 2
    10bc:	6f 0e       	add	r6, r31
    10be:	71 1c       	adc	r7, r1
    10c0:	f8 01       	movw	r30, r16
    10c2:	a0 80       	ld	r10, Z
    10c4:	b1 80       	ldd	r11, Z+1	; 0x01
    10c6:	26 ff       	sbrs	r18, 6
    10c8:	03 c0       	rjmp	.+6      	; 0x10d0 <vfprintf+0x15a>
    10ca:	65 2d       	mov	r22, r5
    10cc:	70 e0       	ldi	r23, 0x00	; 0
    10ce:	02 c0       	rjmp	.+4      	; 0x10d4 <vfprintf+0x15e>
    10d0:	6f ef       	ldi	r22, 0xFF	; 255
    10d2:	7f ef       	ldi	r23, 0xFF	; 255
    10d4:	c5 01       	movw	r24, r10
    10d6:	2c 87       	std	Y+12, r18	; 0x0c
    10d8:	0e 94 8d 09 	call	0x131a	; 0x131a <strnlen_P>
    10dc:	2c 01       	movw	r4, r24
    10de:	2c 85       	ldd	r18, Y+12	; 0x0c
    10e0:	20 68       	ori	r18, 0x80	; 128
    10e2:	22 2e       	mov	r2, r18
    10e4:	83 01       	movw	r16, r6
    10e6:	23 fc       	sbrc	r2, 3
    10e8:	1b c0       	rjmp	.+54     	; 0x1120 <vfprintf+0x1aa>
    10ea:	83 2d       	mov	r24, r3
    10ec:	90 e0       	ldi	r25, 0x00	; 0
    10ee:	48 16       	cp	r4, r24
    10f0:	59 06       	cpc	r5, r25
    10f2:	b0 f4       	brcc	.+44     	; 0x1120 <vfprintf+0x1aa>
    10f4:	b7 01       	movw	r22, r14
    10f6:	80 e2       	ldi	r24, 0x20	; 32
    10f8:	90 e0       	ldi	r25, 0x00	; 0
    10fa:	0e 94 a3 09 	call	0x1346	; 0x1346 <fputc>
    10fe:	3a 94       	dec	r3
    1100:	f4 cf       	rjmp	.-24     	; 0x10ea <vfprintf+0x174>
    1102:	f5 01       	movw	r30, r10
    1104:	27 fc       	sbrc	r2, 7
    1106:	85 91       	lpm	r24, Z+
    1108:	27 fe       	sbrs	r2, 7
    110a:	81 91       	ld	r24, Z+
    110c:	5f 01       	movw	r10, r30
    110e:	b7 01       	movw	r22, r14
    1110:	90 e0       	ldi	r25, 0x00	; 0
    1112:	0e 94 a3 09 	call	0x1346	; 0x1346 <fputc>
    1116:	31 10       	cpse	r3, r1
    1118:	3a 94       	dec	r3
    111a:	f1 e0       	ldi	r31, 0x01	; 1
    111c:	4f 1a       	sub	r4, r31
    111e:	51 08       	sbc	r5, r1
    1120:	41 14       	cp	r4, r1
    1122:	51 04       	cpc	r5, r1
    1124:	71 f7       	brne	.-36     	; 0x1102 <vfprintf+0x18c>
    1126:	e5 c0       	rjmp	.+458    	; 0x12f2 <vfprintf+0x37c>
    1128:	84 36       	cpi	r24, 0x64	; 100
    112a:	11 f0       	breq	.+4      	; 0x1130 <vfprintf+0x1ba>
    112c:	89 36       	cpi	r24, 0x69	; 105
    112e:	39 f5       	brne	.+78     	; 0x117e <vfprintf+0x208>
    1130:	f8 01       	movw	r30, r16
    1132:	27 ff       	sbrs	r18, 7
    1134:	07 c0       	rjmp	.+14     	; 0x1144 <vfprintf+0x1ce>
    1136:	60 81       	ld	r22, Z
    1138:	71 81       	ldd	r23, Z+1	; 0x01
    113a:	82 81       	ldd	r24, Z+2	; 0x02
    113c:	93 81       	ldd	r25, Z+3	; 0x03
    113e:	0c 5f       	subi	r16, 0xFC	; 252
    1140:	1f 4f       	sbci	r17, 0xFF	; 255
    1142:	08 c0       	rjmp	.+16     	; 0x1154 <vfprintf+0x1de>
    1144:	60 81       	ld	r22, Z
    1146:	71 81       	ldd	r23, Z+1	; 0x01
    1148:	88 27       	eor	r24, r24
    114a:	77 fd       	sbrc	r23, 7
    114c:	80 95       	com	r24
    114e:	98 2f       	mov	r25, r24
    1150:	0e 5f       	subi	r16, 0xFE	; 254
    1152:	1f 4f       	sbci	r17, 0xFF	; 255
    1154:	2f 76       	andi	r18, 0x6F	; 111
    1156:	b2 2e       	mov	r11, r18
    1158:	97 ff       	sbrs	r25, 7
    115a:	09 c0       	rjmp	.+18     	; 0x116e <vfprintf+0x1f8>
    115c:	90 95       	com	r25
    115e:	80 95       	com	r24
    1160:	70 95       	com	r23
    1162:	61 95       	neg	r22
    1164:	7f 4f       	sbci	r23, 0xFF	; 255
    1166:	8f 4f       	sbci	r24, 0xFF	; 255
    1168:	9f 4f       	sbci	r25, 0xFF	; 255
    116a:	20 68       	ori	r18, 0x80	; 128
    116c:	b2 2e       	mov	r11, r18
    116e:	2a e0       	ldi	r18, 0x0A	; 10
    1170:	30 e0       	ldi	r19, 0x00	; 0
    1172:	a4 01       	movw	r20, r8
    1174:	0e 94 d5 09 	call	0x13aa	; 0x13aa <__ultoa_invert>
    1178:	a8 2e       	mov	r10, r24
    117a:	a8 18       	sub	r10, r8
    117c:	44 c0       	rjmp	.+136    	; 0x1206 <vfprintf+0x290>
    117e:	85 37       	cpi	r24, 0x75	; 117
    1180:	29 f4       	brne	.+10     	; 0x118c <vfprintf+0x216>
    1182:	2f 7e       	andi	r18, 0xEF	; 239
    1184:	b2 2e       	mov	r11, r18
    1186:	2a e0       	ldi	r18, 0x0A	; 10
    1188:	30 e0       	ldi	r19, 0x00	; 0
    118a:	25 c0       	rjmp	.+74     	; 0x11d6 <vfprintf+0x260>
    118c:	f2 2f       	mov	r31, r18
    118e:	f9 7f       	andi	r31, 0xF9	; 249
    1190:	bf 2e       	mov	r11, r31
    1192:	8f 36       	cpi	r24, 0x6F	; 111
    1194:	c1 f0       	breq	.+48     	; 0x11c6 <vfprintf+0x250>
    1196:	18 f4       	brcc	.+6      	; 0x119e <vfprintf+0x228>
    1198:	88 35       	cpi	r24, 0x58	; 88
    119a:	79 f0       	breq	.+30     	; 0x11ba <vfprintf+0x244>
    119c:	b4 c0       	rjmp	.+360    	; 0x1306 <vfprintf+0x390>
    119e:	80 37       	cpi	r24, 0x70	; 112
    11a0:	19 f0       	breq	.+6      	; 0x11a8 <vfprintf+0x232>
    11a2:	88 37       	cpi	r24, 0x78	; 120
    11a4:	21 f0       	breq	.+8      	; 0x11ae <vfprintf+0x238>
    11a6:	af c0       	rjmp	.+350    	; 0x1306 <vfprintf+0x390>
    11a8:	2f 2f       	mov	r18, r31
    11aa:	20 61       	ori	r18, 0x10	; 16
    11ac:	b2 2e       	mov	r11, r18
    11ae:	b4 fe       	sbrs	r11, 4
    11b0:	0d c0       	rjmp	.+26     	; 0x11cc <vfprintf+0x256>
    11b2:	8b 2d       	mov	r24, r11
    11b4:	84 60       	ori	r24, 0x04	; 4
    11b6:	b8 2e       	mov	r11, r24
    11b8:	09 c0       	rjmp	.+18     	; 0x11cc <vfprintf+0x256>
    11ba:	24 ff       	sbrs	r18, 4
    11bc:	0a c0       	rjmp	.+20     	; 0x11d2 <vfprintf+0x25c>
    11be:	9f 2f       	mov	r25, r31
    11c0:	96 60       	ori	r25, 0x06	; 6
    11c2:	b9 2e       	mov	r11, r25
    11c4:	06 c0       	rjmp	.+12     	; 0x11d2 <vfprintf+0x25c>
    11c6:	28 e0       	ldi	r18, 0x08	; 8
    11c8:	30 e0       	ldi	r19, 0x00	; 0
    11ca:	05 c0       	rjmp	.+10     	; 0x11d6 <vfprintf+0x260>
    11cc:	20 e1       	ldi	r18, 0x10	; 16
    11ce:	30 e0       	ldi	r19, 0x00	; 0
    11d0:	02 c0       	rjmp	.+4      	; 0x11d6 <vfprintf+0x260>
    11d2:	20 e1       	ldi	r18, 0x10	; 16
    11d4:	32 e0       	ldi	r19, 0x02	; 2
    11d6:	f8 01       	movw	r30, r16
    11d8:	b7 fe       	sbrs	r11, 7
    11da:	07 c0       	rjmp	.+14     	; 0x11ea <vfprintf+0x274>
    11dc:	60 81       	ld	r22, Z
    11de:	71 81       	ldd	r23, Z+1	; 0x01
    11e0:	82 81       	ldd	r24, Z+2	; 0x02
    11e2:	93 81       	ldd	r25, Z+3	; 0x03
    11e4:	0c 5f       	subi	r16, 0xFC	; 252
    11e6:	1f 4f       	sbci	r17, 0xFF	; 255
    11e8:	06 c0       	rjmp	.+12     	; 0x11f6 <vfprintf+0x280>
    11ea:	60 81       	ld	r22, Z
    11ec:	71 81       	ldd	r23, Z+1	; 0x01
    11ee:	80 e0       	ldi	r24, 0x00	; 0
    11f0:	90 e0       	ldi	r25, 0x00	; 0
    11f2:	0e 5f       	subi	r16, 0xFE	; 254
    11f4:	1f 4f       	sbci	r17, 0xFF	; 255
    11f6:	a4 01       	movw	r20, r8
    11f8:	0e 94 d5 09 	call	0x13aa	; 0x13aa <__ultoa_invert>
    11fc:	a8 2e       	mov	r10, r24
    11fe:	a8 18       	sub	r10, r8
    1200:	fb 2d       	mov	r31, r11
    1202:	ff 77       	andi	r31, 0x7F	; 127
    1204:	bf 2e       	mov	r11, r31
    1206:	b6 fe       	sbrs	r11, 6
    1208:	0b c0       	rjmp	.+22     	; 0x1220 <vfprintf+0x2aa>
    120a:	2b 2d       	mov	r18, r11
    120c:	2e 7f       	andi	r18, 0xFE	; 254
    120e:	a5 14       	cp	r10, r5
    1210:	50 f4       	brcc	.+20     	; 0x1226 <vfprintf+0x2b0>
    1212:	b4 fe       	sbrs	r11, 4
    1214:	0a c0       	rjmp	.+20     	; 0x122a <vfprintf+0x2b4>
    1216:	b2 fc       	sbrc	r11, 2
    1218:	08 c0       	rjmp	.+16     	; 0x122a <vfprintf+0x2b4>
    121a:	2b 2d       	mov	r18, r11
    121c:	2e 7e       	andi	r18, 0xEE	; 238
    121e:	05 c0       	rjmp	.+10     	; 0x122a <vfprintf+0x2b4>
    1220:	7a 2c       	mov	r7, r10
    1222:	2b 2d       	mov	r18, r11
    1224:	03 c0       	rjmp	.+6      	; 0x122c <vfprintf+0x2b6>
    1226:	7a 2c       	mov	r7, r10
    1228:	01 c0       	rjmp	.+2      	; 0x122c <vfprintf+0x2b6>
    122a:	75 2c       	mov	r7, r5
    122c:	24 ff       	sbrs	r18, 4
    122e:	0d c0       	rjmp	.+26     	; 0x124a <vfprintf+0x2d4>
    1230:	fe 01       	movw	r30, r28
    1232:	ea 0d       	add	r30, r10
    1234:	f1 1d       	adc	r31, r1
    1236:	80 81       	ld	r24, Z
    1238:	80 33       	cpi	r24, 0x30	; 48
    123a:	11 f4       	brne	.+4      	; 0x1240 <vfprintf+0x2ca>
    123c:	29 7e       	andi	r18, 0xE9	; 233
    123e:	09 c0       	rjmp	.+18     	; 0x1252 <vfprintf+0x2dc>
    1240:	22 ff       	sbrs	r18, 2
    1242:	06 c0       	rjmp	.+12     	; 0x1250 <vfprintf+0x2da>
    1244:	73 94       	inc	r7
    1246:	73 94       	inc	r7
    1248:	04 c0       	rjmp	.+8      	; 0x1252 <vfprintf+0x2dc>
    124a:	82 2f       	mov	r24, r18
    124c:	86 78       	andi	r24, 0x86	; 134
    124e:	09 f0       	breq	.+2      	; 0x1252 <vfprintf+0x2dc>
    1250:	73 94       	inc	r7
    1252:	23 fd       	sbrc	r18, 3
    1254:	13 c0       	rjmp	.+38     	; 0x127c <vfprintf+0x306>
    1256:	20 ff       	sbrs	r18, 0
    1258:	06 c0       	rjmp	.+12     	; 0x1266 <vfprintf+0x2f0>
    125a:	5a 2c       	mov	r5, r10
    125c:	73 14       	cp	r7, r3
    125e:	18 f4       	brcc	.+6      	; 0x1266 <vfprintf+0x2f0>
    1260:	53 0c       	add	r5, r3
    1262:	57 18       	sub	r5, r7
    1264:	73 2c       	mov	r7, r3
    1266:	73 14       	cp	r7, r3
    1268:	68 f4       	brcc	.+26     	; 0x1284 <vfprintf+0x30e>
    126a:	b7 01       	movw	r22, r14
    126c:	80 e2       	ldi	r24, 0x20	; 32
    126e:	90 e0       	ldi	r25, 0x00	; 0
    1270:	2c 87       	std	Y+12, r18	; 0x0c
    1272:	0e 94 a3 09 	call	0x1346	; 0x1346 <fputc>
    1276:	73 94       	inc	r7
    1278:	2c 85       	ldd	r18, Y+12	; 0x0c
    127a:	f5 cf       	rjmp	.-22     	; 0x1266 <vfprintf+0x2f0>
    127c:	73 14       	cp	r7, r3
    127e:	10 f4       	brcc	.+4      	; 0x1284 <vfprintf+0x30e>
    1280:	37 18       	sub	r3, r7
    1282:	01 c0       	rjmp	.+2      	; 0x1286 <vfprintf+0x310>
    1284:	31 2c       	mov	r3, r1
    1286:	24 ff       	sbrs	r18, 4
    1288:	12 c0       	rjmp	.+36     	; 0x12ae <vfprintf+0x338>
    128a:	b7 01       	movw	r22, r14
    128c:	80 e3       	ldi	r24, 0x30	; 48
    128e:	90 e0       	ldi	r25, 0x00	; 0
    1290:	2c 87       	std	Y+12, r18	; 0x0c
    1292:	0e 94 a3 09 	call	0x1346	; 0x1346 <fputc>
    1296:	2c 85       	ldd	r18, Y+12	; 0x0c
    1298:	22 ff       	sbrs	r18, 2
    129a:	17 c0       	rjmp	.+46     	; 0x12ca <vfprintf+0x354>
    129c:	21 ff       	sbrs	r18, 1
    129e:	03 c0       	rjmp	.+6      	; 0x12a6 <vfprintf+0x330>
    12a0:	88 e5       	ldi	r24, 0x58	; 88
    12a2:	90 e0       	ldi	r25, 0x00	; 0
    12a4:	02 c0       	rjmp	.+4      	; 0x12aa <vfprintf+0x334>
    12a6:	88 e7       	ldi	r24, 0x78	; 120
    12a8:	90 e0       	ldi	r25, 0x00	; 0
    12aa:	b7 01       	movw	r22, r14
    12ac:	0c c0       	rjmp	.+24     	; 0x12c6 <vfprintf+0x350>
    12ae:	82 2f       	mov	r24, r18
    12b0:	86 78       	andi	r24, 0x86	; 134
    12b2:	59 f0       	breq	.+22     	; 0x12ca <vfprintf+0x354>
    12b4:	21 fd       	sbrc	r18, 1
    12b6:	02 c0       	rjmp	.+4      	; 0x12bc <vfprintf+0x346>
    12b8:	80 e2       	ldi	r24, 0x20	; 32
    12ba:	01 c0       	rjmp	.+2      	; 0x12be <vfprintf+0x348>
    12bc:	8b e2       	ldi	r24, 0x2B	; 43
    12be:	27 fd       	sbrc	r18, 7
    12c0:	8d e2       	ldi	r24, 0x2D	; 45
    12c2:	b7 01       	movw	r22, r14
    12c4:	90 e0       	ldi	r25, 0x00	; 0
    12c6:	0e 94 a3 09 	call	0x1346	; 0x1346 <fputc>
    12ca:	a5 14       	cp	r10, r5
    12cc:	38 f4       	brcc	.+14     	; 0x12dc <vfprintf+0x366>
    12ce:	b7 01       	movw	r22, r14
    12d0:	80 e3       	ldi	r24, 0x30	; 48
    12d2:	90 e0       	ldi	r25, 0x00	; 0
    12d4:	0e 94 a3 09 	call	0x1346	; 0x1346 <fputc>
    12d8:	5a 94       	dec	r5
    12da:	f7 cf       	rjmp	.-18     	; 0x12ca <vfprintf+0x354>
    12dc:	aa 94       	dec	r10
    12de:	f4 01       	movw	r30, r8
    12e0:	ea 0d       	add	r30, r10
    12e2:	f1 1d       	adc	r31, r1
    12e4:	80 81       	ld	r24, Z
    12e6:	b7 01       	movw	r22, r14
    12e8:	90 e0       	ldi	r25, 0x00	; 0
    12ea:	0e 94 a3 09 	call	0x1346	; 0x1346 <fputc>
    12ee:	a1 10       	cpse	r10, r1
    12f0:	f5 cf       	rjmp	.-22     	; 0x12dc <vfprintf+0x366>
    12f2:	33 20       	and	r3, r3
    12f4:	09 f4       	brne	.+2      	; 0x12f8 <vfprintf+0x382>
    12f6:	51 ce       	rjmp	.-862    	; 0xf9a <vfprintf+0x24>
    12f8:	b7 01       	movw	r22, r14
    12fa:	80 e2       	ldi	r24, 0x20	; 32
    12fc:	90 e0       	ldi	r25, 0x00	; 0
    12fe:	0e 94 a3 09 	call	0x1346	; 0x1346 <fputc>
    1302:	3a 94       	dec	r3
    1304:	f6 cf       	rjmp	.-20     	; 0x12f2 <vfprintf+0x37c>
    1306:	f7 01       	movw	r30, r14
    1308:	86 81       	ldd	r24, Z+6	; 0x06
    130a:	97 81       	ldd	r25, Z+7	; 0x07
    130c:	02 c0       	rjmp	.+4      	; 0x1312 <vfprintf+0x39c>
    130e:	8f ef       	ldi	r24, 0xFF	; 255
    1310:	9f ef       	ldi	r25, 0xFF	; 255
    1312:	2c 96       	adiw	r28, 0x0c	; 12
    1314:	e2 e1       	ldi	r30, 0x12	; 18
    1316:	0c 94 4f 0a 	jmp	0x149e	; 0x149e <__epilogue_restores__>

0000131a <strnlen_P>:
    131a:	fc 01       	movw	r30, r24
    131c:	05 90       	lpm	r0, Z+
    131e:	61 50       	subi	r22, 0x01	; 1
    1320:	70 40       	sbci	r23, 0x00	; 0
    1322:	01 10       	cpse	r0, r1
    1324:	d8 f7       	brcc	.-10     	; 0x131c <strnlen_P+0x2>
    1326:	80 95       	com	r24
    1328:	90 95       	com	r25
    132a:	8e 0f       	add	r24, r30
    132c:	9f 1f       	adc	r25, r31
    132e:	08 95       	ret

00001330 <strnlen>:
    1330:	fc 01       	movw	r30, r24
    1332:	61 50       	subi	r22, 0x01	; 1
    1334:	70 40       	sbci	r23, 0x00	; 0
    1336:	01 90       	ld	r0, Z+
    1338:	01 10       	cpse	r0, r1
    133a:	d8 f7       	brcc	.-10     	; 0x1332 <strnlen+0x2>
    133c:	80 95       	com	r24
    133e:	90 95       	com	r25
    1340:	8e 0f       	add	r24, r30
    1342:	9f 1f       	adc	r25, r31
    1344:	08 95       	ret

00001346 <fputc>:
    1346:	0f 93       	push	r16
    1348:	1f 93       	push	r17
    134a:	cf 93       	push	r28
    134c:	df 93       	push	r29
    134e:	18 2f       	mov	r17, r24
    1350:	09 2f       	mov	r16, r25
    1352:	eb 01       	movw	r28, r22
    1354:	8b 81       	ldd	r24, Y+3	; 0x03
    1356:	81 fd       	sbrc	r24, 1
    1358:	03 c0       	rjmp	.+6      	; 0x1360 <fputc+0x1a>
    135a:	8f ef       	ldi	r24, 0xFF	; 255
    135c:	9f ef       	ldi	r25, 0xFF	; 255
    135e:	20 c0       	rjmp	.+64     	; 0x13a0 <fputc+0x5a>
    1360:	82 ff       	sbrs	r24, 2
    1362:	10 c0       	rjmp	.+32     	; 0x1384 <fputc+0x3e>
    1364:	4e 81       	ldd	r20, Y+6	; 0x06
    1366:	5f 81       	ldd	r21, Y+7	; 0x07
    1368:	2c 81       	ldd	r18, Y+4	; 0x04
    136a:	3d 81       	ldd	r19, Y+5	; 0x05
    136c:	42 17       	cp	r20, r18
    136e:	53 07       	cpc	r21, r19
    1370:	7c f4       	brge	.+30     	; 0x1390 <fputc+0x4a>
    1372:	e8 81       	ld	r30, Y
    1374:	f9 81       	ldd	r31, Y+1	; 0x01
    1376:	9f 01       	movw	r18, r30
    1378:	2f 5f       	subi	r18, 0xFF	; 255
    137a:	3f 4f       	sbci	r19, 0xFF	; 255
    137c:	39 83       	std	Y+1, r19	; 0x01
    137e:	28 83       	st	Y, r18
    1380:	10 83       	st	Z, r17
    1382:	06 c0       	rjmp	.+12     	; 0x1390 <fputc+0x4a>
    1384:	e8 85       	ldd	r30, Y+8	; 0x08
    1386:	f9 85       	ldd	r31, Y+9	; 0x09
    1388:	81 2f       	mov	r24, r17
    138a:	09 95       	icall
    138c:	89 2b       	or	r24, r25
    138e:	29 f7       	brne	.-54     	; 0x135a <fputc+0x14>
    1390:	2e 81       	ldd	r18, Y+6	; 0x06
    1392:	3f 81       	ldd	r19, Y+7	; 0x07
    1394:	2f 5f       	subi	r18, 0xFF	; 255
    1396:	3f 4f       	sbci	r19, 0xFF	; 255
    1398:	3f 83       	std	Y+7, r19	; 0x07
    139a:	2e 83       	std	Y+6, r18	; 0x06
    139c:	81 2f       	mov	r24, r17
    139e:	90 2f       	mov	r25, r16
    13a0:	df 91       	pop	r29
    13a2:	cf 91       	pop	r28
    13a4:	1f 91       	pop	r17
    13a6:	0f 91       	pop	r16
    13a8:	08 95       	ret

000013aa <__ultoa_invert>:
    13aa:	fa 01       	movw	r30, r20
    13ac:	aa 27       	eor	r26, r26
    13ae:	28 30       	cpi	r18, 0x08	; 8
    13b0:	51 f1       	breq	.+84     	; 0x1406 <__ultoa_invert+0x5c>
    13b2:	20 31       	cpi	r18, 0x10	; 16
    13b4:	81 f1       	breq	.+96     	; 0x1416 <__ultoa_invert+0x6c>
    13b6:	e8 94       	clt
    13b8:	6f 93       	push	r22
    13ba:	6e 7f       	andi	r22, 0xFE	; 254
    13bc:	6e 5f       	subi	r22, 0xFE	; 254
    13be:	7f 4f       	sbci	r23, 0xFF	; 255
    13c0:	8f 4f       	sbci	r24, 0xFF	; 255
    13c2:	9f 4f       	sbci	r25, 0xFF	; 255
    13c4:	af 4f       	sbci	r26, 0xFF	; 255
    13c6:	b1 e0       	ldi	r27, 0x01	; 1
    13c8:	3e d0       	rcall	.+124    	; 0x1446 <__ultoa_invert+0x9c>
    13ca:	b4 e0       	ldi	r27, 0x04	; 4
    13cc:	3c d0       	rcall	.+120    	; 0x1446 <__ultoa_invert+0x9c>
    13ce:	67 0f       	add	r22, r23
    13d0:	78 1f       	adc	r23, r24
    13d2:	89 1f       	adc	r24, r25
    13d4:	9a 1f       	adc	r25, r26
    13d6:	a1 1d       	adc	r26, r1
    13d8:	68 0f       	add	r22, r24
    13da:	79 1f       	adc	r23, r25
    13dc:	8a 1f       	adc	r24, r26
    13de:	91 1d       	adc	r25, r1
    13e0:	a1 1d       	adc	r26, r1
    13e2:	6a 0f       	add	r22, r26
    13e4:	71 1d       	adc	r23, r1
    13e6:	81 1d       	adc	r24, r1
    13e8:	91 1d       	adc	r25, r1
    13ea:	a1 1d       	adc	r26, r1
    13ec:	20 d0       	rcall	.+64     	; 0x142e <__ultoa_invert+0x84>
    13ee:	09 f4       	brne	.+2      	; 0x13f2 <__ultoa_invert+0x48>
    13f0:	68 94       	set
    13f2:	3f 91       	pop	r19
    13f4:	2a e0       	ldi	r18, 0x0A	; 10
    13f6:	26 9f       	mul	r18, r22
    13f8:	11 24       	eor	r1, r1
    13fa:	30 19       	sub	r19, r0
    13fc:	30 5d       	subi	r19, 0xD0	; 208
    13fe:	31 93       	st	Z+, r19
    1400:	de f6       	brtc	.-74     	; 0x13b8 <__ultoa_invert+0xe>
    1402:	cf 01       	movw	r24, r30
    1404:	08 95       	ret
    1406:	46 2f       	mov	r20, r22
    1408:	47 70       	andi	r20, 0x07	; 7
    140a:	40 5d       	subi	r20, 0xD0	; 208
    140c:	41 93       	st	Z+, r20
    140e:	b3 e0       	ldi	r27, 0x03	; 3
    1410:	0f d0       	rcall	.+30     	; 0x1430 <__ultoa_invert+0x86>
    1412:	c9 f7       	brne	.-14     	; 0x1406 <__ultoa_invert+0x5c>
    1414:	f6 cf       	rjmp	.-20     	; 0x1402 <__ultoa_invert+0x58>
    1416:	46 2f       	mov	r20, r22
    1418:	4f 70       	andi	r20, 0x0F	; 15
    141a:	40 5d       	subi	r20, 0xD0	; 208
    141c:	4a 33       	cpi	r20, 0x3A	; 58
    141e:	18 f0       	brcs	.+6      	; 0x1426 <__ultoa_invert+0x7c>
    1420:	49 5d       	subi	r20, 0xD9	; 217
    1422:	31 fd       	sbrc	r19, 1
    1424:	40 52       	subi	r20, 0x20	; 32
    1426:	41 93       	st	Z+, r20
    1428:	02 d0       	rcall	.+4      	; 0x142e <__ultoa_invert+0x84>
    142a:	a9 f7       	brne	.-22     	; 0x1416 <__ultoa_invert+0x6c>
    142c:	ea cf       	rjmp	.-44     	; 0x1402 <__ultoa_invert+0x58>
    142e:	b4 e0       	ldi	r27, 0x04	; 4
    1430:	a6 95       	lsr	r26
    1432:	97 95       	ror	r25
    1434:	87 95       	ror	r24
    1436:	77 95       	ror	r23
    1438:	67 95       	ror	r22
    143a:	ba 95       	dec	r27
    143c:	c9 f7       	brne	.-14     	; 0x1430 <__ultoa_invert+0x86>
    143e:	00 97       	sbiw	r24, 0x00	; 0
    1440:	61 05       	cpc	r22, r1
    1442:	71 05       	cpc	r23, r1
    1444:	08 95       	ret
    1446:	9b 01       	movw	r18, r22
    1448:	ac 01       	movw	r20, r24
    144a:	0a 2e       	mov	r0, r26
    144c:	06 94       	lsr	r0
    144e:	57 95       	ror	r21
    1450:	47 95       	ror	r20
    1452:	37 95       	ror	r19
    1454:	27 95       	ror	r18
    1456:	ba 95       	dec	r27
    1458:	c9 f7       	brne	.-14     	; 0x144c <__ultoa_invert+0xa2>
    145a:	62 0f       	add	r22, r18
    145c:	73 1f       	adc	r23, r19
    145e:	84 1f       	adc	r24, r20
    1460:	95 1f       	adc	r25, r21
    1462:	a0 1d       	adc	r26, r0
    1464:	08 95       	ret

00001466 <__prologue_saves__>:
    1466:	2f 92       	push	r2
    1468:	3f 92       	push	r3
    146a:	4f 92       	push	r4
    146c:	5f 92       	push	r5
    146e:	6f 92       	push	r6
    1470:	7f 92       	push	r7
    1472:	8f 92       	push	r8
    1474:	9f 92       	push	r9
    1476:	af 92       	push	r10
    1478:	bf 92       	push	r11
    147a:	cf 92       	push	r12
    147c:	df 92       	push	r13
    147e:	ef 92       	push	r14
    1480:	ff 92       	push	r15
    1482:	0f 93       	push	r16
    1484:	1f 93       	push	r17
    1486:	cf 93       	push	r28
    1488:	df 93       	push	r29
    148a:	cd b7       	in	r28, 0x3d	; 61
    148c:	de b7       	in	r29, 0x3e	; 62
    148e:	ca 1b       	sub	r28, r26
    1490:	db 0b       	sbc	r29, r27
    1492:	0f b6       	in	r0, 0x3f	; 63
    1494:	f8 94       	cli
    1496:	de bf       	out	0x3e, r29	; 62
    1498:	0f be       	out	0x3f, r0	; 63
    149a:	cd bf       	out	0x3d, r28	; 61
    149c:	09 94       	ijmp

0000149e <__epilogue_restores__>:
    149e:	2a 88       	ldd	r2, Y+18	; 0x12
    14a0:	39 88       	ldd	r3, Y+17	; 0x11
    14a2:	48 88       	ldd	r4, Y+16	; 0x10
    14a4:	5f 84       	ldd	r5, Y+15	; 0x0f
    14a6:	6e 84       	ldd	r6, Y+14	; 0x0e
    14a8:	7d 84       	ldd	r7, Y+13	; 0x0d
    14aa:	8c 84       	ldd	r8, Y+12	; 0x0c
    14ac:	9b 84       	ldd	r9, Y+11	; 0x0b
    14ae:	aa 84       	ldd	r10, Y+10	; 0x0a
    14b0:	b9 84       	ldd	r11, Y+9	; 0x09
    14b2:	c8 84       	ldd	r12, Y+8	; 0x08
    14b4:	df 80       	ldd	r13, Y+7	; 0x07
    14b6:	ee 80       	ldd	r14, Y+6	; 0x06
    14b8:	fd 80       	ldd	r15, Y+5	; 0x05
    14ba:	0c 81       	ldd	r16, Y+4	; 0x04
    14bc:	1b 81       	ldd	r17, Y+3	; 0x03
    14be:	aa 81       	ldd	r26, Y+2	; 0x02
    14c0:	b9 81       	ldd	r27, Y+1	; 0x01
    14c2:	ce 0f       	add	r28, r30
    14c4:	d1 1d       	adc	r29, r1
    14c6:	0f b6       	in	r0, 0x3f	; 63
    14c8:	f8 94       	cli
    14ca:	de bf       	out	0x3e, r29	; 62
    14cc:	0f be       	out	0x3f, r0	; 63
    14ce:	cd bf       	out	0x3d, r28	; 61
    14d0:	ed 01       	movw	r28, r26
    14d2:	08 95       	ret

000014d4 <_exit>:
    14d4:	f8 94       	cli

000014d6 <__stop_program>:
    14d6:	ff cf       	rjmp	.-2      	; 0x14d6 <__stop_program>
